ARM GAS  C:\Users\NGUYEN~1\AppData\Local\Temp\ccHyPhlR.s 			page 1


   1              		.syntax unified
   2              		.cpu cortex-m0
   3              		.fpu softvfp
   4              		.eabi_attribute 20, 1
   5              		.eabi_attribute 21, 1
   6              		.eabi_attribute 23, 3
   7              		.eabi_attribute 24, 1
   8              		.eabi_attribute 25, 1
   9              		.eabi_attribute 26, 1
  10              		.eabi_attribute 30, 1
  11              		.eabi_attribute 34, 0
  12              		.eabi_attribute 18, 4
  13              		.thumb
  14              		.syntax unified
  15              		.file	"main.c"
  16              		.text
  17              	.Ltext0:
  18              		.cfi_sections	.debug_frame
  19              		.section	.text.Init_System,"ax",%progbits
  20              		.align	2
  21              		.global	Init_System
  22              		.code	16
  23              		.thumb_func
  24              		.type	Init_System, %function
  25              	Init_System:
  26              	.LFB34:
  27              		.file 1 "main.c"
   1:main.c        **** /* ========================================
   2:main.c        ****  *
   3:main.c        ****  * Copyright YOUR COMPANY, THE YEAR
   4:main.c        ****  * All Rights Reserved
   5:main.c        ****  * UNPUBLISHED, LICENSED SOFTWARE.
   6:main.c        ****  *
   7:main.c        ****  * CONFIDENTIAL AND PROPRIETARY INFORMATION
   8:main.c        ****  * WHICH IS THE PROPERTY OF your company.
   9:main.c        ****  *
  10:main.c        ****  * ========================================
  11:main.c        **** */
  12:main.c        **** #include "main.h"
  13:main.c        **** 
  14:main.c        **** int main(void)
  15:main.c        **** {
  16:main.c        ****     CyGlobalIntEnable; /* Enable global interrupts. */
  17:main.c        **** 
  18:main.c        ****     /* Place your initialization/startup code here (e.g. MyInst_Start()) */
  19:main.c        ****     
  20:main.c        ****     Init_System();  
  21:main.c        ****     
  22:main.c        ****     float result_Read_Adc;
  23:main.c        ****    
  24:main.c        **** 
  25:main.c        ****     for(;;)
  26:main.c        ****     {
  27:main.c        ****         /* Place your application code here. */
  28:main.c        ****         
  29:main.c        ****         result_Read_Adc = readADC();
  30:main.c        ****         
ARM GAS  C:\Users\NGUYEN~1\AppData\Local\Temp\ccHyPhlR.s 			page 2


  31:main.c        ****         transmitToPC( result_Read_Adc );
  32:main.c        ****         
  33:main.c        ****         CyDelay( 1000 );
  34:main.c        ****     }
  35:main.c        **** }
  36:main.c        **** 
  37:main.c        **** void Init_System()
  38:main.c        **** {
  28              		.loc 1 38 0
  29              		.cfi_startproc
  30              		@ args = 0, pretend = 0, frame = 0
  31              		@ frame_needed = 0, uses_anonymous_args = 0
  32 0000 10B5     		push	{r4, lr}
  33              		.cfi_def_cfa_offset 8
  34              		.cfi_offset 4, -8
  35              		.cfi_offset 14, -4
  39:main.c        ****     uartUser_Start();
  36              		.loc 1 39 0
  37 0002 FFF7FEFF 		bl	uartUser_Start
  38              	.LVL0:
  40:main.c        ****     
  41:main.c        ****     adcUser_Start();    /* Initialize ADC */  
  39              		.loc 1 41 0
  40 0006 FFF7FEFF 		bl	adcUser_Start
  41              	.LVL1:
  42:main.c        **** }
  42              		.loc 1 42 0
  43              		@ sp needed
  44 000a 10BD     		pop	{r4, pc}
  45              		.cfi_endproc
  46              	.LFE34:
  47              		.size	Init_System, .-Init_System
  48              		.global	__aeabi_i2f
  49              		.section	.text.readADC,"ax",%progbits
  50              		.align	2
  51              		.global	readADC
  52              		.code	16
  53              		.thumb_func
  54              		.type	readADC, %function
  55              	readADC:
  56              	.LFB35:
  43:main.c        **** 
  44:main.c        **** float readADC()
  45:main.c        **** {
  57              		.loc 1 45 0
  58              		.cfi_startproc
  59              		@ args = 0, pretend = 0, frame = 0
  60              		@ frame_needed = 0, uses_anonymous_args = 0
  61 0000 10B5     		push	{r4, lr}
  62              		.cfi_def_cfa_offset 8
  63              		.cfi_offset 4, -8
  64              		.cfi_offset 14, -4
  65              	.LVL2:
  46:main.c        ****     float value_Adc_Volt=0;
  47:main.c        ****     
  48:main.c        ****     adcUser_StartConvert();    /* Start ADC conversions */
  66              		.loc 1 48 0
ARM GAS  C:\Users\NGUYEN~1\AppData\Local\Temp\ccHyPhlR.s 			page 3


  67 0002 FFF7FEFF 		bl	adcUser_StartConvert
  68              	.LVL3:
  49:main.c        ****     
  50:main.c        ****     adcUser_IsEndConversion(  adcUser_WAIT_FOR_RESULT );
  69              		.loc 1 50 0
  70 0006 0220     		movs	r0, #2
  71 0008 FFF7FEFF 		bl	adcUser_IsEndConversion
  72              	.LVL4:
  51:main.c        ****     
  52:main.c        ****     value_Adc_Volt = adcUser_GetResult16(0);
  73              		.loc 1 52 0
  74 000c 0020     		movs	r0, #0
  75 000e FFF7FEFF 		bl	adcUser_GetResult16
  76              	.LVL5:
  77 0012 0100     		movs	r1, r0
  78              	.LVL6:
  53:main.c        ****     
  54:main.c        ****     float value_Adc_mVolt = adcUser_CountsTo_mVolts(0, value_Adc_Volt);
  79              		.loc 1 54 0
  80 0014 0020     		movs	r0, #0
  81 0016 FFF7FEFF 		bl	adcUser_CountsTo_mVolts
  82              	.LVL7:
  83 001a FFF7FEFF 		bl	__aeabi_i2f
  84              	.LVL8:
  55:main.c        ****     //  float32 value_Adc_mVolt = (value_Adc_Volt*5)/4095;
  56:main.c        ****     
  57:main.c        ****     //return value_Adc_Volt;
  58:main.c        ****     return value_Adc_mVolt;
  59:main.c        **** }
  85              		.loc 1 59 0
  86              		@ sp needed
  87 001e 10BD     		pop	{r4, pc}
  88              		.cfi_endproc
  89              	.LFE35:
  90              		.size	readADC, .-readADC
  91              		.global	__aeabi_f2d
  92              		.section	.text.transmitToPC,"ax",%progbits
  93              		.align	2
  94              		.global	transmitToPC
  95              		.code	16
  96              		.thumb_func
  97              		.type	transmitToPC, %function
  98              	transmitToPC:
  99              	.LFB36:
  60:main.c        **** 
  61:main.c        **** void transmitToPC(float adcData)
  62:main.c        **** {
 100              		.loc 1 62 0
 101              		.cfi_startproc
 102              		@ args = 0, pretend = 0, frame = 16
 103              		@ frame_needed = 0, uses_anonymous_args = 0
 104              	.LVL9:
 105 0000 00B5     		push	{lr}
 106              		.cfi_def_cfa_offset 4
 107              		.cfi_offset 14, -4
 108 0002 85B0     		sub	sp, sp, #20
 109              		.cfi_def_cfa_offset 24
ARM GAS  C:\Users\NGUYEN~1\AppData\Local\Temp\ccHyPhlR.s 			page 4


  63:main.c        ****     char res[10];
  64:main.c        ****     
  65:main.c        ****     sprintf(res,"%0.3f", adcData); 
 110              		.loc 1 65 0
 111 0004 FFF7FEFF 		bl	__aeabi_f2d
 112              	.LVL10:
 113 0008 0200     		movs	r2, r0
 114 000a 0B00     		movs	r3, r1
 115 000c 0549     		ldr	r1, .L4
 116 000e 01A8     		add	r0, sp, #4
 117 0010 FFF7FEFF 		bl	sprintf
 118              	.LVL11:
  66:main.c        ****     
  67:main.c        ****     uartUser_UartPutString(res);
 119              		.loc 1 67 0
 120 0014 01A8     		add	r0, sp, #4
 121 0016 FFF7FEFF 		bl	uartUser_UartPutString
 122              	.LVL12:
  68:main.c        ****     
  69:main.c        ****     uartUser_UartPutCRLF(0x20); /* Printf down line between string ( ~'\n')*/
 123              		.loc 1 69 0
 124 001a 2020     		movs	r0, #32
 125 001c FFF7FEFF 		bl	uartUser_UartPutCRLF
 126              	.LVL13:
  70:main.c        **** }
 127              		.loc 1 70 0
 128 0020 05B0     		add	sp, sp, #20
 129              		@ sp needed
 130 0022 00BD     		pop	{pc}
 131              	.L5:
 132              		.align	2
 133              	.L4:
 134 0024 00000000 		.word	.LC0
 135              		.cfi_endproc
 136              	.LFE36:
 137              		.size	transmitToPC, .-transmitToPC
 138              		.section	.text.main,"ax",%progbits
 139              		.align	2
 140              		.global	main
 141              		.code	16
 142              		.thumb_func
 143              		.type	main, %function
 144              	main:
 145              	.LFB33:
  15:main.c        ****     CyGlobalIntEnable; /* Enable global interrupts. */
 146              		.loc 1 15 0
 147              		.cfi_startproc
 148              		@ args = 0, pretend = 0, frame = 0
 149              		@ frame_needed = 0, uses_anonymous_args = 0
 150 0000 10B5     		push	{r4, lr}
 151              		.cfi_def_cfa_offset 8
 152              		.cfi_offset 4, -8
 153              		.cfi_offset 14, -4
  16:main.c        **** 
 154              		.loc 1 16 0
 155              		.syntax divided
 156              	@ 16 "main.c" 1
ARM GAS  C:\Users\NGUYEN~1\AppData\Local\Temp\ccHyPhlR.s 			page 5


 157 0002 62B6     		CPSIE   i
 158              	@ 0 "" 2
  20:main.c        ****     
 159              		.loc 1 20 0
 160              		.thumb
 161              		.syntax unified
 162 0004 FFF7FEFF 		bl	Init_System
 163              	.LVL14:
 164              	.L7:
  29:main.c        ****         
 165              		.loc 1 29 0 discriminator 1
 166 0008 FFF7FEFF 		bl	readADC
 167              	.LVL15:
  31:main.c        ****         
 168              		.loc 1 31 0 discriminator 1
 169 000c FFF7FEFF 		bl	transmitToPC
 170              	.LVL16:
  33:main.c        ****     }
 171              		.loc 1 33 0 discriminator 1
 172 0010 FA20     		movs	r0, #250
 173 0012 8000     		lsls	r0, r0, #2
 174 0014 FFF7FEFF 		bl	CyDelay
 175              	.LVL17:
 176 0018 F6E7     		b	.L7
 177              		.cfi_endproc
 178              	.LFE33:
 179              		.size	main, .-main
 180 001a C046     		.section	.rodata.str1.4,"aMS",%progbits,1
 181              		.align	2
 182              	.LC0:
 183 0000 25302E33 		.ascii	"%0.3f\000"
 183      6600
 184              		.text
 185              	.Letext0:
 186              		.file 2 "Generated_Source\\PSoC4/uartUser.h"
 187              		.file 3 "Generated_Source\\PSoC4/adcUser.h"
 188              		.file 4 "c:\\program files (x86)\\cypress\\psoc creator\\4.4\\psoc creator\\import\\gnu\\arm\\5.4.
 189              		.file 5 "Generated_Source\\PSoC4/uartUser_SPI_UART.h"
 190              		.file 6 "Generated_Source\\PSoC4/CyLib.h"