ARM GAS  C:\Users\NGUYEN~1\AppData\Local\Temp\ccGCnS91.s 			page 1


   1              		.syntax unified
   2              		.cpu cortex-m0
   3              		.fpu softvfp
   4              		.eabi_attribute 20, 1
   5              		.eabi_attribute 21, 1
   6              		.eabi_attribute 23, 3
   7              		.eabi_attribute 24, 1
   8              		.eabi_attribute 25, 1
   9              		.eabi_attribute 26, 1
  10              		.eabi_attribute 30, 1
  11              		.eabi_attribute 34, 0
  12              		.eabi_attribute 18, 4
  13              		.thumb
  14              		.syntax unified
  15              		.file	"main.c"
  16              		.text
  17              	.Ltext0:
  18              		.cfi_sections	.debug_frame
  19              		.section	.text.init_system,"ax",%progbits
  20              		.align	2
  21              		.global	init_system
  22              		.code	16
  23              		.thumb_func
  24              		.type	init_system, %function
  25              	init_system:
  26              	.LFB34:
  27              		.file 1 "main.c"
   1:main.c        **** /* ========================================
   2:main.c        ****  *
   3:main.c        ****  * Copyright YOUR COMPANY, THE YEAR
   4:main.c        ****  * All Rights Reserved
   5:main.c        ****  * UNPUBLISHED, LICENSED SOFTWARE.
   6:main.c        ****  *
   7:main.c        ****  * CONFIDENTIAL AND PROPRIETARY INFORMATION
   8:main.c        ****  * WHICH IS THE PROPERTY OF your company.
   9:main.c        ****  *
  10:main.c        ****  * ========================================
  11:main.c        **** */
  12:main.c        **** #include "main.h"
  13:main.c        **** 
  14:main.c        **** int main(void)
  15:main.c        **** {
  16:main.c        ****     CyGlobalIntEnable; /* Enable global interrupts. */
  17:main.c        **** 
  18:main.c        ****     /* Place your initialization/startup code here (e.g. MyInst_Start()) */
  19:main.c        ****     
  20:main.c        ****     init_system();
  21:main.c        ****     
  22:main.c        ****     for(;;)
  23:main.c        ****     {
  24:main.c        ****         /* Place your application code here. */        
  25:main.c        ****         test_transmit_data();
  26:main.c        ****         
  27:main.c        ****         transmit_data_to_computer(read_adc(0), 0);
  28:main.c        ****         transmit_data_to_computer(read_adc(1), 1);
  29:main.c        ****         transmit_data_to_computer(read_adc(2), 2);
  30:main.c        ****         transmit_data_to_computer(read_adc(3), 3);
ARM GAS  C:\Users\NGUYEN~1\AppData\Local\Temp\ccGCnS91.s 			page 2


  31:main.c        ****         
  32:main.c        ****         CyDelay(1000);
  33:main.c        ****     }
  34:main.c        **** }
  35:main.c        **** 
  36:main.c        **** void init_system()
  37:main.c        **** {
  28              		.loc 1 37 0
  29              		.cfi_startproc
  30              		@ args = 0, pretend = 0, frame = 0
  31              		@ frame_needed = 0, uses_anonymous_args = 0
  32 0000 10B5     		push	{r4, lr}
  33              		.cfi_def_cfa_offset 8
  34              		.cfi_offset 4, -8
  35              		.cfi_offset 14, -4
  38:main.c        ****     uart_Start();
  36              		.loc 1 38 0
  37 0002 FFF7FEFF 		bl	uart_Start
  38              	.LVL0:
  39:main.c        ****     
  40:main.c        ****     adc_Start();
  39              		.loc 1 40 0
  40 0006 FFF7FEFF 		bl	adc_Start
  41              	.LVL1:
  41:main.c        **** }
  42              		.loc 1 41 0
  43              		@ sp needed
  44 000a 10BD     		pop	{r4, pc}
  45              		.cfi_endproc
  46              	.LFE34:
  47              		.size	init_system, .-init_system
  48              		.section	.text.main,"ax",%progbits
  49              		.align	2
  50              		.global	main
  51              		.code	16
  52              		.thumb_func
  53              		.type	main, %function
  54              	main:
  55              	.LFB33:
  15:main.c        ****     CyGlobalIntEnable; /* Enable global interrupts. */
  56              		.loc 1 15 0
  57              		.cfi_startproc
  58              		@ Volatile: function does not return.
  59              		@ args = 0, pretend = 0, frame = 0
  60              		@ frame_needed = 0, uses_anonymous_args = 0
  61 0000 10B5     		push	{r4, lr}
  62              		.cfi_def_cfa_offset 8
  63              		.cfi_offset 4, -8
  64              		.cfi_offset 14, -4
  16:main.c        **** 
  65              		.loc 1 16 0
  66              		.syntax divided
  67              	@ 16 "main.c" 1
  68 0002 62B6     		CPSIE   i
  69              	@ 0 "" 2
  20:main.c        ****     
  70              		.loc 1 20 0
ARM GAS  C:\Users\NGUYEN~1\AppData\Local\Temp\ccGCnS91.s 			page 3


  71              		.thumb
  72              		.syntax unified
  73 0004 FFF7FEFF 		bl	init_system
  74              	.LVL2:
  75              	.L3:
  25:main.c        ****         
  76              		.loc 1 25 0 discriminator 1
  77 0008 FFF7FEFF 		bl	test_transmit_data
  78              	.LVL3:
  27:main.c        ****         transmit_data_to_computer(read_adc(1), 1);
  79              		.loc 1 27 0 discriminator 1
  80 000c 0020     		movs	r0, #0
  81 000e FFF7FEFF 		bl	read_adc
  82              	.LVL4:
  83 0012 0021     		movs	r1, #0
  84 0014 FFF7FEFF 		bl	transmit_data_to_computer
  85              	.LVL5:
  28:main.c        ****         transmit_data_to_computer(read_adc(2), 2);
  86              		.loc 1 28 0 discriminator 1
  87 0018 0120     		movs	r0, #1
  88 001a FFF7FEFF 		bl	read_adc
  89              	.LVL6:
  90 001e 0121     		movs	r1, #1
  91 0020 FFF7FEFF 		bl	transmit_data_to_computer
  92              	.LVL7:
  29:main.c        ****         transmit_data_to_computer(read_adc(3), 3);
  93              		.loc 1 29 0 discriminator 1
  94 0024 0220     		movs	r0, #2
  95 0026 FFF7FEFF 		bl	read_adc
  96              	.LVL8:
  97 002a 0221     		movs	r1, #2
  98 002c FFF7FEFF 		bl	transmit_data_to_computer
  99              	.LVL9:
  30:main.c        ****         
 100              		.loc 1 30 0 discriminator 1
 101 0030 0320     		movs	r0, #3
 102 0032 FFF7FEFF 		bl	read_adc
 103              	.LVL10:
 104 0036 0321     		movs	r1, #3
 105 0038 FFF7FEFF 		bl	transmit_data_to_computer
 106              	.LVL11:
  32:main.c        ****     }
 107              		.loc 1 32 0 discriminator 1
 108 003c FA20     		movs	r0, #250
 109 003e 8000     		lsls	r0, r0, #2
 110 0040 FFF7FEFF 		bl	CyDelay
 111              	.LVL12:
 112 0044 E0E7     		b	.L3
 113              		.cfi_endproc
 114              	.LFE33:
 115              		.size	main, .-main
 116 0046 C046     		.text
 117              	.Letext0:
 118              		.file 2 "Generated_Source\\PSoC4/uart.h"
 119              		.file 3 "Generated_Source\\PSoC4/adc.h"
 120              		.file 4 "uart_transmit.h"
 121              		.file 5 "measureResister.h"
ARM GAS  C:\Users\NGUYEN~1\AppData\Local\Temp\ccGCnS91.s 			page 4


 122              		.file 6 "Generated_Source\\PSoC4/CyLib.h"