ARM GAS  C:\Users\NGUYEN~1\AppData\Local\Temp\ccaDXtWC.s 			page 1


   1              		.syntax unified
   2              		.cpu cortex-m0
   3              		.fpu softvfp
   4              		.eabi_attribute 20, 1
   5              		.eabi_attribute 21, 1
   6              		.eabi_attribute 23, 3
   7              		.eabi_attribute 24, 1
   8              		.eabi_attribute 25, 1
   9              		.eabi_attribute 26, 1
  10              		.eabi_attribute 30, 1
  11              		.eabi_attribute 34, 0
  12              		.eabi_attribute 18, 4
  13              		.thumb
  14              		.syntax unified
  15              		.file	"main.c"
  16              		.text
  17              	.Ltext0:
  18              		.cfi_sections	.debug_frame
  19              		.section	.text.system_initialization,"ax",%progbits
  20              		.align	2
  21              		.global	system_initialization
  22              		.code	16
  23              		.thumb_func
  24              		.type	system_initialization, %function
  25              	system_initialization:
  26              	.LFB34:
  27              		.file 1 "main.c"
   1:main.c        **** /* ========================================
   2:main.c        ****  *
   3:main.c        ****  * Copyright YOUR COMPANY, THE YEAR
   4:main.c        ****  * All Rights Reserved
   5:main.c        ****  * UNPUBLISHED, LICENSED SOFTWARE.
   6:main.c        ****  *
   7:main.c        ****  * CONFIDENTIAL AND PROPRIETARY INFORMATION
   8:main.c        ****  * WHICH IS THE PROPERTY OF your company.
   9:main.c        ****  *
  10:main.c        ****  * ========================================
  11:main.c        **** */
  12:main.c        **** #include <stdio.h>
  13:main.c        **** #include "project.h"
  14:main.c        **** #include "ds1307_i2c.h"
  15:main.c        **** #include "uart_transmitss.h"
  16:main.c        ****     
  17:main.c        **** #include "main.h"
  18:main.c        **** 
  19:main.c        **** int main(void)
  20:main.c        **** {
  21:main.c        ****     CyGlobalIntEnable; /* Enable global interrupts. */
  22:main.c        **** 
  23:main.c        ****     data_time time;
  24:main.c        ****     char txString[50];
  25:main.c        ****     
  26:main.c        ****     system_initialization(); 
  27:main.c        ****     
  28:main.c        ****     uart_transmit_UartPutString("Write data to DS1307.\n");
  29:main.c        ****     CyDelay(1000);
  30:main.c        ****     
ARM GAS  C:\Users\NGUYEN~1\AppData\Local\Temp\ccaDXtWC.s 			page 2


  31:main.c        ****     ds1307_time_init(&time);
  32:main.c        ****     ds1307_write_data(&time);
  33:main.c        ****     time_string_concatenation(time, txString);
  34:main.c        ****     uart_transmit_UartPutString(txString); 
  35:main.c        ****     CyDelay(1000);
  36:main.c        ****     
  37:main.c        ****     uart_transmit_UartPutString("\nRead data to DS1307.\n");
  38:main.c        ****     CyDelay(1000);
  39:main.c        ****     
  40:main.c        ****     
  41:main.c        ****     for(;;)
  42:main.c        ****     {
  43:main.c        ****         Pin_Led_Yellow_Write( ~Pin_Led_Yellow_Read() );   
  44:main.c        ****         
  45:main.c        ****         ds1307_read_data(&time); 
  46:main.c        ****         time_string_concatenation(time, txString);
  47:main.c        ****         uart_transmit_UartPutString(txString);   
  48:main.c        ****         
  49:main.c        ****         CyDelay(500);
  50:main.c        ****     }
  51:main.c        **** }
  52:main.c        **** 
  53:main.c        **** void system_initialization()
  54:main.c        **** {
  28              		.loc 1 54 0
  29              		.cfi_startproc
  30              		@ args = 0, pretend = 0, frame = 0
  31              		@ frame_needed = 0, uses_anonymous_args = 0
  32 0000 10B5     		push	{r4, lr}
  33              		.cfi_def_cfa_offset 8
  34              		.cfi_offset 4, -8
  35              		.cfi_offset 14, -4
  55:main.c        ****     uart_transmit_Start();
  36              		.loc 1 55 0
  37 0002 FFF7FEFF 		bl	uart_transmit_Start
  38              	.LVL0:
  56:main.c        ****     
  57:main.c        ****     i2c_ds1307_Start();
  39              		.loc 1 57 0
  40 0006 FFF7FEFF 		bl	i2c_ds1307_Start
  41              	.LVL1:
  58:main.c        ****     
  59:main.c        ****     Pin_Led_Yellow_Write(0);
  42              		.loc 1 59 0
  43 000a 0020     		movs	r0, #0
  44 000c FFF7FEFF 		bl	Pin_Led_Yellow_Write
  45              	.LVL2:
  60:main.c        **** }
  46              		.loc 1 60 0
  47              		@ sp needed
  48 0010 10BD     		pop	{r4, pc}
  49              		.cfi_endproc
  50              	.LFE34:
  51              		.size	system_initialization, .-system_initialization
  52 0012 C046     		.section	.text.main,"ax",%progbits
  53              		.align	2
  54              		.global	main
ARM GAS  C:\Users\NGUYEN~1\AppData\Local\Temp\ccaDXtWC.s 			page 3


  55              		.code	16
  56              		.thumb_func
  57              		.type	main, %function
  58              	main:
  59              	.LFB33:
  20:main.c        ****     CyGlobalIntEnable; /* Enable global interrupts. */
  60              		.loc 1 20 0
  61              		.cfi_startproc
  62              		@ args = 0, pretend = 0, frame = 64
  63              		@ frame_needed = 0, uses_anonymous_args = 0
  64 0000 10B5     		push	{r4, lr}
  65              		.cfi_def_cfa_offset 8
  66              		.cfi_offset 4, -8
  67              		.cfi_offset 14, -4
  68 0002 90B0     		sub	sp, sp, #64
  69              		.cfi_def_cfa_offset 72
  21:main.c        **** 
  70              		.loc 1 21 0
  71              		.syntax divided
  72              	@ 21 "main.c" 1
  73 0004 62B6     		CPSIE   i
  74              	@ 0 "" 2
  26:main.c        ****     
  75              		.loc 1 26 0
  76              		.thumb
  77              		.syntax unified
  78 0006 FFF7FEFF 		bl	system_initialization
  79              	.LVL3:
  28:main.c        ****     CyDelay(1000);
  80              		.loc 1 28 0
  81 000a 1A48     		ldr	r0, .L4
  82 000c FFF7FEFF 		bl	uart_transmit_UartPutString
  83              	.LVL4:
  29:main.c        ****     
  84              		.loc 1 29 0
  85 0010 FA24     		movs	r4, #250
  86 0012 A400     		lsls	r4, r4, #2
  87 0014 2000     		movs	r0, r4
  88 0016 FFF7FEFF 		bl	CyDelay
  89              	.LVL5:
  31:main.c        ****     ds1307_write_data(&time);
  90              		.loc 1 31 0
  91 001a 0EA8     		add	r0, sp, #56
  92 001c FFF7FEFF 		bl	ds1307_time_init
  93              	.LVL6:
  32:main.c        ****     time_string_concatenation(time, txString);
  94              		.loc 1 32 0
  95 0020 0EA8     		add	r0, sp, #56
  96 0022 FFF7FEFF 		bl	ds1307_write_data
  97              	.LVL7:
  33:main.c        ****     uart_transmit_UartPutString(txString); 
  98              		.loc 1 33 0
  99 0026 01AA     		add	r2, sp, #4
 100 0028 0E98     		ldr	r0, [sp, #56]
 101 002a 0F99     		ldr	r1, [sp, #60]
 102 002c FFF7FEFF 		bl	time_string_concatenation
 103              	.LVL8:
ARM GAS  C:\Users\NGUYEN~1\AppData\Local\Temp\ccaDXtWC.s 			page 4


  34:main.c        ****     CyDelay(1000);
 104              		.loc 1 34 0
 105 0030 01A8     		add	r0, sp, #4
 106 0032 FFF7FEFF 		bl	uart_transmit_UartPutString
 107              	.LVL9:
  35:main.c        ****     
 108              		.loc 1 35 0
 109 0036 2000     		movs	r0, r4
 110 0038 FFF7FEFF 		bl	CyDelay
 111              	.LVL10:
  37:main.c        ****     CyDelay(1000);
 112              		.loc 1 37 0
 113 003c 0E48     		ldr	r0, .L4+4
 114 003e FFF7FEFF 		bl	uart_transmit_UartPutString
 115              	.LVL11:
  38:main.c        ****     
 116              		.loc 1 38 0
 117 0042 2000     		movs	r0, r4
 118 0044 FFF7FEFF 		bl	CyDelay
 119              	.LVL12:
 120              	.L3:
  43:main.c        ****         
 121              		.loc 1 43 0 discriminator 1
 122 0048 FFF7FEFF 		bl	Pin_Led_Yellow_Read
 123              	.LVL13:
 124 004c C043     		mvns	r0, r0
 125 004e C0B2     		uxtb	r0, r0
 126 0050 FFF7FEFF 		bl	Pin_Led_Yellow_Write
 127              	.LVL14:
  45:main.c        ****         time_string_concatenation(time, txString);
 128              		.loc 1 45 0 discriminator 1
 129 0054 0EA8     		add	r0, sp, #56
 130 0056 FFF7FEFF 		bl	ds1307_read_data
 131              	.LVL15:
  46:main.c        ****         uart_transmit_UartPutString(txString);   
 132              		.loc 1 46 0 discriminator 1
 133 005a 01AA     		add	r2, sp, #4
 134 005c 0E98     		ldr	r0, [sp, #56]
 135 005e 0F99     		ldr	r1, [sp, #60]
 136 0060 FFF7FEFF 		bl	time_string_concatenation
 137              	.LVL16:
  47:main.c        ****         
 138              		.loc 1 47 0 discriminator 1
 139 0064 01A8     		add	r0, sp, #4
 140 0066 FFF7FEFF 		bl	uart_transmit_UartPutString
 141              	.LVL17:
  49:main.c        ****     }
 142              		.loc 1 49 0 discriminator 1
 143 006a FA20     		movs	r0, #250
 144 006c 4000     		lsls	r0, r0, #1
 145 006e FFF7FEFF 		bl	CyDelay
 146              	.LVL18:
 147 0072 E9E7     		b	.L3
 148              	.L5:
 149              		.align	2
 150              	.L4:
 151 0074 00000000 		.word	.LC0
ARM GAS  C:\Users\NGUYEN~1\AppData\Local\Temp\ccaDXtWC.s 			page 5


 152 0078 18000000 		.word	.LC2
 153              		.cfi_endproc
 154              	.LFE33:
 155              		.size	main, .-main
 156              		.section	.rodata.str1.4,"aMS",%progbits,1
 157              		.align	2
 158              	.LC0:
 159 0000 57726974 		.ascii	"Write data to DS1307.\012\000"
 159      65206461 
 159      74612074 
 159      6F204453 
 159      31333037 
 160 0017 00       		.space	1
 161              	.LC2:
 162 0018 0A526561 		.ascii	"\012Read data to DS1307.\012\000"
 162      64206461 
 162      74612074 
 162      6F204453 
 162      31333037 
 163              		.text
 164              	.Letext0:
 165              		.file 2 "ds1307_i2c.h"
 166              		.file 3 "Generated_Source\\PSoC4/cytypes.h"
 167              		.file 4 "Generated_Source\\PSoC4/uart_transmit.h"
 168              		.file 5 "Generated_Source\\PSoC4/i2c_ds1307.h"
 169              		.file 6 "Generated_Source\\PSoC4/Pin_Led_Yellow.h"
 170              		.file 7 "Generated_Source\\PSoC4/uart_transmit_SPI_UART.h"
 171              		.file 8 "Generated_Source\\PSoC4/CyLib.h"
 172              		.file 9 "uart_transmitss.h"