ARM GAS  C:\Users\NGUYEN~1\AppData\Local\Temp\ccKYDegz.s 			page 1


   1              		.syntax unified
   2              		.cpu cortex-m0
   3              		.fpu softvfp
   4              		.eabi_attribute 20, 1
   5              		.eabi_attribute 21, 1
   6              		.eabi_attribute 23, 3
   7              		.eabi_attribute 24, 1
   8              		.eabi_attribute 25, 1
   9              		.eabi_attribute 26, 1
  10              		.eabi_attribute 30, 1
  11              		.eabi_attribute 34, 0
  12              		.eabi_attribute 18, 4
  13              		.thumb
  14              		.syntax unified
  15              		.file	"uart_transmitss.c"
  16              		.text
  17              	.Ltext0:
  18              		.cfi_sections	.debug_frame
  19              		.section	.text.time_string_concatenation,"ax",%progbits
  20              		.align	2
  21              		.global	time_string_concatenation
  22              		.code	16
  23              		.thumb_func
  24              		.type	time_string_concatenation, %function
  25              	time_string_concatenation:
  26              	.LFB33:
  27              		.file 1 "uart_transmitss.c"
   1:uart_transmitss.c **** /* ========================================
   2:uart_transmitss.c ****  *
   3:uart_transmitss.c ****  * Copyright YOUR COMPANY, THE YEAR
   4:uart_transmitss.c ****  * All Rights Reserved
   5:uart_transmitss.c ****  * UNPUBLISHED, LICENSED SOFTWARE.
   6:uart_transmitss.c ****  *
   7:uart_transmitss.c ****  * CONFIDENTIAL AND PROPRIETARY INFORMATION
   8:uart_transmitss.c ****  * WHICH IS THE PROPERTY OF your company.
   9:uart_transmitss.c ****  *
  10:uart_transmitss.c ****  * ========================================
  11:uart_transmitss.c **** */
  12:uart_transmitss.c **** #include "project.h"
  13:uart_transmitss.c **** #include <stdio.h>
  14:uart_transmitss.c **** 
  15:uart_transmitss.c **** #include "uart_transmitss.h"
  16:uart_transmitss.c **** 
  17:uart_transmitss.c **** void time_string_concatenation(data_time time, char *strings)
  18:uart_transmitss.c **** {
  28              		.loc 1 18 0
  29              		.cfi_startproc
  30              		@ args = 0, pretend = 0, frame = 24
  31              		@ frame_needed = 0, uses_anonymous_args = 0
  32              	.LVL0:
  33 0000 F0B5     		push	{r4, r5, r6, r7, lr}
  34              		.cfi_def_cfa_offset 20
  35              		.cfi_offset 4, -20
  36              		.cfi_offset 5, -16
  37              		.cfi_offset 6, -12
  38              		.cfi_offset 7, -8
  39              		.cfi_offset 14, -4
ARM GAS  C:\Users\NGUYEN~1\AppData\Local\Temp\ccKYDegz.s 			page 2


  40 0002 91B0     		sub	sp, sp, #68
  41              		.cfi_def_cfa_offset 88
  42 0004 0300     		movs	r3, r0
  43 0006 0A90     		str	r0, [sp, #40]
  44 0008 0B91     		str	r1, [sp, #44]
  45 000a 1000     		movs	r0, r2
  19:uart_transmitss.c ****     char dayInWeek[10];
  20:uart_transmitss.c ****     
  21:uart_transmitss.c ****     switch(time.day)
  46              		.loc 1 21 0
  47 000c 1B0E     		lsrs	r3, r3, #24
  48 000e 072B     		cmp	r3, #7
  49 0010 1CD8     		bhi	.L2
  50 0012 9B00     		lsls	r3, r3, #2
  51 0014 1F4A     		ldr	r2, .L12
  52              	.LVL1:
  53 0016 D358     		ldr	r3, [r2, r3]
  54 0018 9F46     		mov	pc, r3
  55              		.section	.rodata
  56              		.align	2
  57              	.L4:
  58 0000 4C000000 		.word	.L2
  59 0004 1A000000 		.word	.L3
  60 0008 20000000 		.word	.L5
  61 000c 26000000 		.word	.L6
  62 0010 2C000000 		.word	.L7
  63 0014 32000000 		.word	.L8
  64 0018 40000000 		.word	.L9
  65 001c 46000000 		.word	.L10
  66              		.section	.text.time_string_concatenation
  67              	.L3:
  22:uart_transmitss.c ****     {
  23:uart_transmitss.c ****         case Sun:
  24:uart_transmitss.c ****             strcpy(dayInWeek, "Sun");  
  68              		.loc 1 24 0
  69 001a 1F4B     		ldr	r3, .L12+4
  70 001c 0D93     		str	r3, [sp, #52]
  25:uart_transmitss.c ****             break;
  71              		.loc 1 25 0
  72 001e 1DE0     		b	.L11
  73              	.L5:
  26:uart_transmitss.c ****         case Mon:
  27:uart_transmitss.c ****             strcpy(dayInWeek, "Mon");  
  74              		.loc 1 27 0
  75 0020 1E4B     		ldr	r3, .L12+8
  76 0022 0D93     		str	r3, [sp, #52]
  28:uart_transmitss.c ****             break;            
  77              		.loc 1 28 0
  78 0024 1AE0     		b	.L11
  79              	.L6:
  29:uart_transmitss.c ****         case Tue:
  30:uart_transmitss.c ****             strcpy(dayInWeek, "Tue");  
  80              		.loc 1 30 0
  81 0026 1E4B     		ldr	r3, .L12+12
  82 0028 0D93     		str	r3, [sp, #52]
  31:uart_transmitss.c ****             break;   
  83              		.loc 1 31 0
ARM GAS  C:\Users\NGUYEN~1\AppData\Local\Temp\ccKYDegz.s 			page 3


  84 002a 17E0     		b	.L11
  85              	.L7:
  32:uart_transmitss.c ****         case Web:
  33:uart_transmitss.c ****             strcpy(dayInWeek, "Wed");  
  86              		.loc 1 33 0
  87 002c 1D4B     		ldr	r3, .L12+16
  88 002e 0D93     		str	r3, [sp, #52]
  34:uart_transmitss.c ****             break;    
  89              		.loc 1 34 0
  90 0030 14E0     		b	.L11
  91              	.L8:
  35:uart_transmitss.c ****         case Thur:
  36:uart_transmitss.c ****             strcpy(dayInWeek, "Thur");  
  92              		.loc 1 36 0
  93 0032 1D4B     		ldr	r3, .L12+20
  94 0034 1A68     		ldr	r2, [r3]
  95 0036 0D92     		str	r2, [sp, #52]
  96 0038 1A79     		ldrb	r2, [r3, #4]
  97 003a 0DAB     		add	r3, sp, #52
  98 003c 1A71     		strb	r2, [r3, #4]
  37:uart_transmitss.c ****             break; 
  99              		.loc 1 37 0
 100 003e 0DE0     		b	.L11
 101              	.L9:
  38:uart_transmitss.c ****         case Fri:
  39:uart_transmitss.c ****             strcpy(dayInWeek, "Fri");  
 102              		.loc 1 39 0
 103 0040 1A4B     		ldr	r3, .L12+24
 104 0042 0D93     		str	r3, [sp, #52]
  40:uart_transmitss.c ****             break;
 105              		.loc 1 40 0
 106 0044 0AE0     		b	.L11
 107              	.L10:
  41:uart_transmitss.c ****         case Sat:
  42:uart_transmitss.c ****             strcpy(dayInWeek, "Sat");  
 108              		.loc 1 42 0
 109 0046 1A4B     		ldr	r3, .L12+28
 110 0048 0D93     		str	r3, [sp, #52]
  43:uart_transmitss.c ****             break;  
 111              		.loc 1 43 0
 112 004a 07E0     		b	.L11
 113              	.L2:
  44:uart_transmitss.c ****         default:
  45:uart_transmitss.c ****              strcpy(dayInWeek, "Error!");  
 114              		.loc 1 45 0
 115 004c 0DAA     		add	r2, sp, #52
 116 004e 194B     		ldr	r3, .L12+32
 117 0050 1968     		ldr	r1, [r3]
 118 0052 0D91     		str	r1, [sp, #52]
 119 0054 9988     		ldrh	r1, [r3, #4]
 120 0056 9180     		strh	r1, [r2, #4]
 121 0058 9B79     		ldrb	r3, [r3, #6]
 122 005a 9371     		strb	r3, [r2, #6]
 123              	.L11:
  46:uart_transmitss.c ****     }
  47:uart_transmitss.c ****     
  48:uart_transmitss.c ****     sprintf(strings, "\n%d%c%d%c%d %s,%d%c%d%c%d",time.hour, ':', time.minute, ':', time.second, \
ARM GAS  C:\Users\NGUYEN~1\AppData\Local\Temp\ccKYDegz.s 			page 4


 124              		.loc 1 48 0
 125 005c 0AAB     		add	r3, sp, #40
 126 005e 9A78     		ldrb	r2, [r3, #2]
 127 0060 5978     		ldrb	r1, [r3, #1]
 128 0062 1C78     		ldrb	r4, [r3]
  49:uart_transmitss.c ****         dayInWeek, time.date, '/', time.month, '/', 2000 + time.year );
 129              		.loc 1 49 0
 130 0064 1D79     		ldrb	r5, [r3, #4]
 131 0066 5E79     		ldrb	r6, [r3, #5]
 132 0068 9B79     		ldrb	r3, [r3, #6]
  48:uart_transmitss.c ****         dayInWeek, time.date, '/', time.month, '/', 2000 + time.year );
 133              		.loc 1 48 0
 134 006a FA27     		movs	r7, #250
 135 006c FF00     		lsls	r7, r7, #3
 136 006e BC46     		mov	ip, r7
 137 0070 6344     		add	r3, r3, ip
 138 0072 0893     		str	r3, [sp, #32]
 139 0074 2F23     		movs	r3, #47
 140 0076 0793     		str	r3, [sp, #28]
 141 0078 0696     		str	r6, [sp, #24]
 142 007a 0593     		str	r3, [sp, #20]
 143 007c 0495     		str	r5, [sp, #16]
 144 007e 0DAB     		add	r3, sp, #52
 145 0080 0393     		str	r3, [sp, #12]
 146 0082 0294     		str	r4, [sp, #8]
 147 0084 3A23     		movs	r3, #58
 148 0086 0193     		str	r3, [sp, #4]
 149 0088 0091     		str	r1, [sp]
 150 008a 0B49     		ldr	r1, .L12+36
 151 008c FFF7FEFF 		bl	sprintf
 152              	.LVL2:
  50:uart_transmitss.c ****     
  51:uart_transmitss.c ****     return;
  52:uart_transmitss.c **** }
 153              		.loc 1 52 0
 154 0090 11B0     		add	sp, sp, #68
 155              		@ sp needed
 156 0092 F0BD     		pop	{r4, r5, r6, r7, pc}
 157              	.L13:
 158              		.align	2
 159              	.L12:
 160 0094 00000000 		.word	.L4
 161 0098 53756E00 		.word	7238995
 162 009c 4D6F6E00 		.word	7237453
 163 00a0 54756500 		.word	6649172
 164 00a4 57656400 		.word	6579543
 165 00a8 00000000 		.word	.LC1
 166 00ac 46726900 		.word	6910534
 167 00b0 53617400 		.word	7627091
 168 00b4 08000000 		.word	.LC3
 169 00b8 10000000 		.word	.LC5
 170              		.cfi_endproc
 171              	.LFE33:
 172              		.size	time_string_concatenation, .-time_string_concatenation
 173              		.section	.text.test_uart_transmit,"ax",%progbits
 174              		.align	2
 175              		.global	test_uart_transmit
ARM GAS  C:\Users\NGUYEN~1\AppData\Local\Temp\ccKYDegz.s 			page 5


 176              		.code	16
 177              		.thumb_func
 178              		.type	test_uart_transmit, %function
 179              	test_uart_transmit:
 180              	.LFB34:
  53:uart_transmitss.c **** 
  54:uart_transmitss.c **** void test_uart_transmit()
  55:uart_transmitss.c **** {
 181              		.loc 1 55 0
 182              		.cfi_startproc
 183              		@ args = 0, pretend = 0, frame = 64
 184              		@ frame_needed = 0, uses_anonymous_args = 0
 185 0000 00B5     		push	{lr}
 186              		.cfi_def_cfa_offset 4
 187              		.cfi_offset 14, -4
 188 0002 91B0     		sub	sp, sp, #68
 189              		.cfi_def_cfa_offset 72
  56:uart_transmitss.c ****     data_time time;
  57:uart_transmitss.c ****     char txString[50];
  58:uart_transmitss.c ****     
  59:uart_transmitss.c ****     time.second = 15;
 190              		.loc 1 59 0
 191 0004 0EAB     		add	r3, sp, #56
 192 0006 0F22     		movs	r2, #15
 193 0008 1A70     		strb	r2, [r3]
  60:uart_transmitss.c ****     time.minute = 15;
 194              		.loc 1 60 0
 195 000a 5A70     		strb	r2, [r3, #1]
  61:uart_transmitss.c ****     time.hour = 15;
 196              		.loc 1 61 0
 197 000c 9A70     		strb	r2, [r3, #2]
  62:uart_transmitss.c ****     time.day = 15;
 198              		.loc 1 62 0
 199 000e DA70     		strb	r2, [r3, #3]
  63:uart_transmitss.c ****     time.date = 15;
 200              		.loc 1 63 0
 201 0010 1A71     		strb	r2, [r3, #4]
  64:uart_transmitss.c ****     time.month = 15;
 202              		.loc 1 64 0
 203 0012 5A71     		strb	r2, [r3, #5]
  65:uart_transmitss.c ****     time.year = 15;
 204              		.loc 1 65 0
 205 0014 9A71     		strb	r2, [r3, #6]
  66:uart_transmitss.c ****     
  67:uart_transmitss.c ****     time_string_concatenation(time, txString);
 206              		.loc 1 67 0
 207 0016 01AA     		add	r2, sp, #4
 208 0018 0E98     		ldr	r0, [sp, #56]
 209 001a 0F99     		ldr	r1, [sp, #60]
 210 001c FFF7FEFF 		bl	time_string_concatenation
 211              	.LVL3:
  68:uart_transmitss.c ****     uart_transmit_UartPutString( txString );    
 212              		.loc 1 68 0
 213 0020 01A8     		add	r0, sp, #4
 214 0022 FFF7FEFF 		bl	uart_transmit_UartPutString
 215              	.LVL4:
  69:uart_transmitss.c ****     
ARM GAS  C:\Users\NGUYEN~1\AppData\Local\Temp\ccKYDegz.s 			page 6


  70:uart_transmitss.c ****     CyDelay(1000);
 216              		.loc 1 70 0
 217 0026 FA20     		movs	r0, #250
 218 0028 8000     		lsls	r0, r0, #2
 219 002a FFF7FEFF 		bl	CyDelay
 220              	.LVL5:
  71:uart_transmitss.c **** }
 221              		.loc 1 71 0
 222 002e 11B0     		add	sp, sp, #68
 223              		@ sp needed
 224 0030 00BD     		pop	{pc}
 225              		.cfi_endproc
 226              	.LFE34:
 227              		.size	test_uart_transmit, .-test_uart_transmit
 228 0032 C046     		.section	.rodata.str1.4,"aMS",%progbits,1
 229              		.align	2
 230              	.LC1:
 231 0000 54687572 		.ascii	"Thur\000"
 231      00
 232 0005 000000   		.space	3
 233              	.LC3:
 234 0008 4572726F 		.ascii	"Error!\000"
 234      722100
 235 000f 00       		.space	1
 236              	.LC5:
 237 0010 0A256425 		.ascii	"\012%d%c%d%c%d %s,%d%c%d%c%d\000"
 237      63256425 
 237      63256420 
 237      25732C25 
 237      64256325 
 238              		.text
 239              	.Letext0:
 240              		.file 2 "ds1307_i2c.h"
 241              		.file 3 "Generated_Source\\PSoC4/cytypes.h"
 242              		.file 4 "c:\\program files (x86)\\cypress\\psoc creator\\4.4\\psoc creator\\import\\gnu\\arm\\5.4.
 243              		.file 5 "Generated_Source\\PSoC4/uart_transmit_SPI_UART.h"
 244              		.file 6 "Generated_Source\\PSoC4/CyLib.h"