ARM GAS  C:\Users\NGUYEN~1\AppData\Local\Temp\ccvQVRNm.s 			page 1


   1              		.syntax unified
   2              		.cpu cortex-m0
   3              		.fpu softvfp
   4              		.eabi_attribute 20, 1
   5              		.eabi_attribute 21, 1
   6              		.eabi_attribute 23, 3
   7              		.eabi_attribute 24, 1
   8              		.eabi_attribute 25, 1
   9              		.eabi_attribute 26, 1
  10              		.eabi_attribute 30, 1
  11              		.eabi_attribute 34, 0
  12              		.eabi_attribute 18, 4
  13              		.thumb
  14              		.syntax unified
  15              		.file	"Timer_Delay.c"
  16              		.text
  17              	.Ltext0:
  18              		.cfi_sections	.debug_frame
  19              		.section	.text.interrupt_timer,"ax",%progbits
  20              		.align	2
  21              		.global	interrupt_timer
  22              		.code	16
  23              		.thumb_func
  24              		.type	interrupt_timer, %function
  25              	interrupt_timer:
  26              	.LFB32:
  27              		.file 1 "Timer_Delay.c"
   1:Timer_Delay.c **** /* ========================================
   2:Timer_Delay.c ****  *
   3:Timer_Delay.c ****  * Copyright YOUR COMPANY, THE YEAR
   4:Timer_Delay.c ****  * All Rights Reserved
   5:Timer_Delay.c ****  * UNPUBLISHED, LICENSED SOFTWARE.
   6:Timer_Delay.c ****  *
   7:Timer_Delay.c ****  * CONFIDENTIAL AND PROPRIETARY INFORMATION
   8:Timer_Delay.c ****  * WHICH IS THE PROPERTY OF your company.
   9:Timer_Delay.c ****  *
  10:Timer_Delay.c ****  * ========================================
  11:Timer_Delay.c **** */
  12:Timer_Delay.c **** #include "Timer_Delay.h"
  13:Timer_Delay.c **** 
  14:Timer_Delay.c **** #include "project.h"
  15:Timer_Delay.c **** 
  16:Timer_Delay.c **** volatile int timer_flag = 0;
  17:Timer_Delay.c **** 
  18:Timer_Delay.c **** CY_ISR(interrupt_timer)
  19:Timer_Delay.c **** {
  28              		.loc 1 19 0
  29              		.cfi_startproc
  30              		@ args = 0, pretend = 0, frame = 0
  31              		@ frame_needed = 0, uses_anonymous_args = 0
  32 0000 10B5     		push	{r4, lr}
  33              		.cfi_def_cfa_offset 8
  34              		.cfi_offset 4, -8
  35              		.cfi_offset 14, -4
  20:Timer_Delay.c ****     timer_flag = 1;
  36              		.loc 1 20 0
  37 0002 0122     		movs	r2, #1
ARM GAS  C:\Users\NGUYEN~1\AppData\Local\Temp\ccvQVRNm.s 			page 2


  38 0004 034B     		ldr	r3, .L2
  39 0006 1A60     		str	r2, [r3]
  21:Timer_Delay.c ****     timer_ClearInterrupt(timer_INTR_MASK_TC);
  40              		.loc 1 21 0
  41 0008 0120     		movs	r0, #1
  42 000a FFF7FEFF 		bl	timer_ClearInterrupt
  43              	.LVL0:
  22:Timer_Delay.c ****     timer_int_ClearPending();
  44              		.loc 1 22 0
  45 000e FFF7FEFF 		bl	timer_int_ClearPending
  46              	.LVL1:
  23:Timer_Delay.c **** }
  47              		.loc 1 23 0
  48              		@ sp needed
  49 0012 10BD     		pop	{r4, pc}
  50              	.L3:
  51              		.align	2
  52              	.L2:
  53 0014 00000000 		.word	.LANCHOR0
  54              		.cfi_endproc
  55              	.LFE32:
  56              		.size	interrupt_timer, .-interrupt_timer
  57              		.section	.text.start_timer_int,"ax",%progbits
  58              		.align	2
  59              		.global	start_timer_int
  60              		.code	16
  61              		.thumb_func
  62              		.type	start_timer_int, %function
  63              	start_timer_int:
  64              	.LFB33:
  24:Timer_Delay.c **** 
  25:Timer_Delay.c **** void start_timer_int()
  26:Timer_Delay.c **** {
  65              		.loc 1 26 0
  66              		.cfi_startproc
  67              		@ args = 0, pretend = 0, frame = 0
  68              		@ frame_needed = 0, uses_anonymous_args = 0
  69 0000 10B5     		push	{r4, lr}
  70              		.cfi_def_cfa_offset 8
  71              		.cfi_offset 4, -8
  72              		.cfi_offset 14, -4
  27:Timer_Delay.c ****     timer_int_StartEx(interrupt_timer);
  73              		.loc 1 27 0
  74 0002 0248     		ldr	r0, .L5
  75 0004 FFF7FEFF 		bl	timer_int_StartEx
  76              	.LVL2:
  28:Timer_Delay.c **** }
  77              		.loc 1 28 0
  78              		@ sp needed
  79 0008 10BD     		pop	{r4, pc}
  80              	.L6:
  81 000a C046     		.align	2
  82              	.L5:
  83 000c 00000000 		.word	interrupt_timer
  84              		.cfi_endproc
  85              	.LFE33:
  86              		.size	start_timer_int, .-start_timer_int
ARM GAS  C:\Users\NGUYEN~1\AppData\Local\Temp\ccvQVRNm.s 			page 3


  87              		.section	.text.ms_delay,"ax",%progbits
  88              		.align	2
  89              		.global	ms_delay
  90              		.code	16
  91              		.thumb_func
  92              		.type	ms_delay, %function
  93              	ms_delay:
  94              	.LFB34:
  29:Timer_Delay.c **** 
  30:Timer_Delay.c **** void ms_delay(unsigned long ms)
  31:Timer_Delay.c **** {
  95              		.loc 1 31 0
  96              		.cfi_startproc
  97              		@ args = 0, pretend = 0, frame = 0
  98              		@ frame_needed = 0, uses_anonymous_args = 0
  99              	.LVL3:
 100 0000 10B5     		push	{r4, lr}
 101              		.cfi_def_cfa_offset 8
 102              		.cfi_offset 4, -8
 103              		.cfi_offset 14, -4
  32:Timer_Delay.c ****     uint32 period = TIMER_CLOCK/1000*ms;
 104              		.loc 1 32 0
 105 0002 084B     		ldr	r3, .L9
 106 0004 5843     		muls	r0, r3
 107              	.LVL4:
  33:Timer_Delay.c ****     timer_WritePeriod(period);
 108              		.loc 1 33 0
 109 0006 FFF7FEFF 		bl	timer_WritePeriod
 110              	.LVL5:
  34:Timer_Delay.c ****     timer_Enable();// start the timeout counter
 111              		.loc 1 34 0
 112 000a FFF7FEFF 		bl	timer_Enable
 113              	.LVL6:
 114              	.L8:
  35:Timer_Delay.c ****     while(!timer_flag);
 115              		.loc 1 35 0 discriminator 1
 116 000e 064B     		ldr	r3, .L9+4
 117 0010 1B68     		ldr	r3, [r3]
 118 0012 002B     		cmp	r3, #0
 119 0014 FBD0     		beq	.L8
  36:Timer_Delay.c ****     timer_Stop();
 120              		.loc 1 36 0
 121 0016 FFF7FEFF 		bl	timer_Stop
 122              	.LVL7:
  37:Timer_Delay.c ****     timer_flag = 0;
 123              		.loc 1 37 0
 124 001a 0022     		movs	r2, #0
 125 001c 024B     		ldr	r3, .L9+4
 126 001e 1A60     		str	r2, [r3]
  38:Timer_Delay.c **** }
 127              		.loc 1 38 0
 128              		@ sp needed
 129 0020 10BD     		pop	{r4, pc}
 130              	.L10:
 131 0022 C046     		.align	2
 132              	.L9:
 133 0024 10270000 		.word	10000
ARM GAS  C:\Users\NGUYEN~1\AppData\Local\Temp\ccvQVRNm.s 			page 4


 134 0028 00000000 		.word	.LANCHOR0
 135              		.cfi_endproc
 136              	.LFE34:
 137              		.size	ms_delay, .-ms_delay
 138              		.global	timer_flag
 139              		.bss
 140              		.align	2
 141              		.set	.LANCHOR0,. + 0
 142              		.type	timer_flag, %object
 143              		.size	timer_flag, 4
 144              	timer_flag:
 145 0000 00000000 		.space	4
 146              		.text
 147              	.Letext0:
 148              		.file 2 "Generated_Source\\PSoC4/timer.h"
 149              		.file 3 "Generated_Source\\PSoC4/timer_int.h"
 150              		.file 4 "Generated_Source\\PSoC4/cytypes.h"