ARM GAS  C:\Users\NGUYEN~1\AppData\Local\Temp\cca9gFNb.s 			page 1


   1              		.syntax unified
   2              		.cpu cortex-m0
   3              		.fpu softvfp
   4              		.eabi_attribute 20, 1
   5              		.eabi_attribute 21, 1
   6              		.eabi_attribute 23, 3
   7              		.eabi_attribute 24, 1
   8              		.eabi_attribute 25, 1
   9              		.eabi_attribute 26, 1
  10              		.eabi_attribute 30, 1
  11              		.eabi_attribute 34, 0
  12              		.eabi_attribute 18, 4
  13              		.thumb
  14              		.syntax unified
  15              		.file	"main.c"
  16              		.text
  17              	.Ltext0:
  18              		.cfi_sections	.debug_frame
  19              		.section	.text.Pin_SW2_Handler,"ax",%progbits
  20              		.align	2
  21              		.global	Pin_SW2_Handler
  22              		.code	16
  23              		.thumb_func
  24              		.type	Pin_SW2_Handler, %function
  25              	Pin_SW2_Handler:
  26              	.LFB32:
  27              		.file 1 "main.c"
   1:main.c        **** /* ========================================
   2:main.c        ****  *
   3:main.c        ****  * Copyright YOUR COMPANY, THE YEAR
   4:main.c        ****  * All Rights Reserved
   5:main.c        ****  * UNPUBLISHED, LICENSED SOFTWARE.
   6:main.c        ****  *
   7:main.c        ****  * CONFIDENTIAL AND PROPRIETARY INFORMATION
   8:main.c        ****  * WHICH IS THE PROPERTY OF your company.
   9:main.c        ****  *
  10:main.c        ****  * ========================================
  11:main.c        **** */
  12:main.c        **** #include "project.h"
  13:main.c        **** 
  14:main.c        **** void led_glow(uint8 status_1);
  15:main.c        **** 
  16:main.c        **** CY_ISR( Pin_SW2_Handler )
  17:main.c        **** {
  28              		.loc 1 17 0
  29              		.cfi_startproc
  30              		@ args = 0, pretend = 0, frame = 0
  31              		@ frame_needed = 0, uses_anonymous_args = 0
  32 0000 10B5     		push	{r4, lr}
  33              		.cfi_def_cfa_offset 8
  34              		.cfi_offset 4, -8
  35              		.cfi_offset 14, -4
  18:main.c        ****     led_blue_Write( ~led_blue_Read() );
  36              		.loc 1 18 0
  37 0002 FFF7FEFF 		bl	led_blue_Read
  38              	.LVL0:
  39 0006 C043     		mvns	r0, r0
ARM GAS  C:\Users\NGUYEN~1\AppData\Local\Temp\cca9gFNb.s 			page 2


  40 0008 C0B2     		uxtb	r0, r0
  41 000a FFF7FEFF 		bl	led_blue_Write
  42              	.LVL1:
  19:main.c        ****     
  20:main.c        ****     Pin_SW2_ClearInterrupt();
  43              		.loc 1 20 0
  44 000e FFF7FEFF 		bl	Pin_SW2_ClearInterrupt
  45              	.LVL2:
  21:main.c        **** }
  46              		.loc 1 21 0
  47              		@ sp needed
  48 0012 10BD     		pop	{r4, pc}
  49              		.cfi_endproc
  50              	.LFE32:
  51              		.size	Pin_SW2_Handler, .-Pin_SW2_Handler
  52              		.section	.text.main,"ax",%progbits
  53              		.align	2
  54              		.global	main
  55              		.code	16
  56              		.thumb_func
  57              		.type	main, %function
  58              	main:
  59              	.LFB33:
  22:main.c        **** 
  23:main.c        **** int main(void)
  24:main.c        **** {
  60              		.loc 1 24 0
  61              		.cfi_startproc
  62              		@ Volatile: function does not return.
  63              		@ args = 0, pretend = 0, frame = 0
  64              		@ frame_needed = 0, uses_anonymous_args = 0
  65 0000 10B5     		push	{r4, lr}
  66              		.cfi_def_cfa_offset 8
  67              		.cfi_offset 4, -8
  68              		.cfi_offset 14, -4
  25:main.c        ****     CyGlobalIntEnable; /* Enable global interrupts. */
  69              		.loc 1 25 0
  70              		.syntax divided
  71              	@ 25 "main.c" 1
  72 0002 62B6     		CPSIE   i
  73              	@ 0 "" 2
  26:main.c        **** 
  27:main.c        ****     /* Place your initialization/startup code here (e.g. MyInst_Start()) */
  28:main.c        ****     
  29:main.c        ****     //gnd_Write(0);
  30:main.c        ****     Pin_SW2_Int_StartEx( Pin_SW2_Handler );
  74              		.loc 1 30 0
  75              		.thumb
  76              		.syntax unified
  77 0004 0148     		ldr	r0, .L4
  78 0006 FFF7FEFF 		bl	Pin_SW2_Int_StartEx
  79              	.LVL3:
  80              	.L3:
  81 000a FEE7     		b	.L3
  82              	.L5:
  83              		.align	2
  84              	.L4:
ARM GAS  C:\Users\NGUYEN~1\AppData\Local\Temp\cca9gFNb.s 			page 3


  85 000c 00000000 		.word	Pin_SW2_Handler
  86              		.cfi_endproc
  87              	.LFE33:
  88              		.size	main, .-main
  89              		.section	.text.led_glow,"ax",%progbits
  90              		.align	2
  91              		.global	led_glow
  92              		.code	16
  93              		.thumb_func
  94              		.type	led_glow, %function
  95              	led_glow:
  96              	.LFB34:
  31:main.c        ****     
  32:main.c        ****     for(;;)
  33:main.c        ****     {
  34:main.c        ****         /* Place your application code here. */  
  35:main.c        ****         
  36:main.c        ****         /*
  37:main.c        ****         uint8 result = Pin_SW2_Read();
  38:main.c        ****         
  39:main.c        ****         led_glow(result);  
  40:main.c        ****         */
  41:main.c        ****     }
  42:main.c        **** }
  43:main.c        **** 
  44:main.c        **** /* press button,led will glow */
  45:main.c        **** void led_glow(uint8 status_1)
  46:main.c        **** {
  97              		.loc 1 46 0
  98              		.cfi_startproc
  99              		@ args = 0, pretend = 0, frame = 0
 100              		@ frame_needed = 0, uses_anonymous_args = 0
 101              	.LVL4:
 102 0000 10B5     		push	{r4, lr}
 103              		.cfi_def_cfa_offset 8
 104              		.cfi_offset 4, -8
 105              		.cfi_offset 14, -4
  47:main.c        ****        status_1 == 0 ?  led_blue_Write(0) : led_blue_Write(1) ;
 106              		.loc 1 47 0
 107 0002 0028     		cmp	r0, #0
 108 0004 02D1     		bne	.L7
 109              		.loc 1 47 0 is_stmt 0 discriminator 1
 110 0006 FFF7FEFF 		bl	led_blue_Write
 111              	.LVL5:
 112 000a 02E0     		b	.L6
 113              	.LVL6:
 114              	.L7:
 115              		.loc 1 47 0 discriminator 2
 116 000c 0120     		movs	r0, #1
 117              	.LVL7:
 118 000e FFF7FEFF 		bl	led_blue_Write
 119              	.LVL8:
 120              	.L6:
  48:main.c        **** }
 121              		.loc 1 48 0 is_stmt 1
 122              		@ sp needed
 123 0012 10BD     		pop	{r4, pc}
ARM GAS  C:\Users\NGUYEN~1\AppData\Local\Temp\cca9gFNb.s 			page 4


 124              		.cfi_endproc
 125              	.LFE34:
 126              		.size	led_glow, .-led_glow
 127              		.text
 128              	.Letext0:
 129              		.file 2 "Generated_Source\\PSoC4/led_blue.h"
 130              		.file 3 "Generated_Source\\PSoC4/Pin_SW2.h"
 131              		.file 4 "Generated_Source\\PSoC4/Pin_SW2_Int.h"
 132              		.file 5 "Generated_Source\\PSoC4/cytypes.h"