ARM GAS  C:\Users\NGUYEN~1\AppData\Local\Temp\cciswJQ8.s 			page 1


   1              		.syntax unified
   2              		.cpu cortex-m0
   3              		.fpu softvfp
   4              		.eabi_attribute 20, 1
   5              		.eabi_attribute 21, 1
   6              		.eabi_attribute 23, 3
   7              		.eabi_attribute 24, 1
   8              		.eabi_attribute 25, 1
   9              		.eabi_attribute 26, 1
  10              		.eabi_attribute 30, 1
  11              		.eabi_attribute 34, 0
  12              		.eabi_attribute 18, 4
  13              		.thumb
  14              		.syntax unified
  15              		.file	"Led7_Seg.c"
  16              		.text
  17              	.Ltext0:
  18              		.cfi_sections	.debug_frame
  19              		.section	.text.writeHightOrLow,"ax",%progbits
  20              		.align	2
  21              		.global	writeHightOrLow
  22              		.code	16
  23              		.thumb_func
  24              		.type	writeHightOrLow, %function
  25              	writeHightOrLow:
  26              	.LFB33:
  27              		.file 1 "Led7_Seg.c"
   1:Led7_Seg.c    **** /* ========================================
   2:Led7_Seg.c    ****  *
   3:Led7_Seg.c    ****  * Copyright YOUR COMPANY, THE YEAR
   4:Led7_Seg.c    ****  * All Rights Reserved
   5:Led7_Seg.c    ****  * UNPUBLISHED, LICENSED SOFTWARE.
   6:Led7_Seg.c    ****  *
   7:Led7_Seg.c    ****  * CONFIDENTIAL AND PROPRIETARY INFORMATION
   8:Led7_Seg.c    ****  * WHICH IS THE PROPERTY OF your company.
   9:Led7_Seg.c    ****  *
  10:Led7_Seg.c    ****  * ========================================
  11:Led7_Seg.c    **** */
  12:Led7_Seg.c    **** 
  13:Led7_Seg.c    **** /* [] END OF FILE */
  14:Led7_Seg.c    **** #include "project.h"        
  15:Led7_Seg.c    **** #include <stdio.h>
  16:Led7_Seg.c    **** 
  17:Led7_Seg.c    **** enum Status_pin
  18:Led7_Seg.c    **** {
  19:Led7_Seg.c    ****     low = 0,
  20:Led7_Seg.c    ****     hight
  21:Led7_Seg.c    **** };
  22:Led7_Seg.c    **** 
  23:Led7_Seg.c    **** #include "Led7_Seg.h"
  24:Led7_Seg.c    **** 
  25:Led7_Seg.c    **** unsigned char code_Led7_Seg[] = {0xfc,0x60,0xda,0xf2,0x66,0xb6,0xbe,0xe0,0xfe,0xf6};
  26:Led7_Seg.c    **** 
  27:Led7_Seg.c    **** uint8 writeHightOrLow(uint8 dataNeedWrite, uint8 locationWrite)
  28:Led7_Seg.c    **** {
  28              		.loc 1 28 0
  29              		.cfi_startproc
ARM GAS  C:\Users\NGUYEN~1\AppData\Local\Temp\cciswJQ8.s 			page 2


  30              		@ args = 0, pretend = 0, frame = 0
  31              		@ frame_needed = 0, uses_anonymous_args = 0
  32              		@ link register save eliminated.
  33              	.LVL0:
  29:Led7_Seg.c    ****     uint8 result = 0;
  30:Led7_Seg.c    ****     
  31:Led7_Seg.c    ****     switch(locationWrite)
  34              		.loc 1 31 0
  35 0000 0729     		cmp	r1, #7
  36 0002 24D8     		bhi	.L12
  37 0004 8900     		lsls	r1, r1, #2
  38              	.LVL1:
  39 0006 1B4B     		ldr	r3, .L21
  40 0008 5B58     		ldr	r3, [r3, r1]
  41 000a 9F46     		mov	pc, r3
  42              		.section	.rodata
  43              		.align	2
  44              	.L4:
  45 0000 0C000000 		.word	.L3
  46 0004 14000000 		.word	.L5
  47 0008 1C000000 		.word	.L6
  48 000c 24000000 		.word	.L7
  49 0010 2C000000 		.word	.L8
  50 0014 34000000 		.word	.L9
  51 0018 3C000000 		.word	.L10
  52 001c 44000000 		.word	.L11
  53              		.section	.text.writeHightOrLow
  54              	.L3:
  32:Led7_Seg.c    ****     {
  33:Led7_Seg.c    ****         case 0:
  34:Led7_Seg.c    ****             ((dataNeedWrite & (1<<0)) == (1<<0) ) ? (result = hight) : (result = low);
  55              		.loc 1 34 0
  56 000c C307     		lsls	r3, r0, #31
  57 000e 20D5     		bpl	.L13
  58 0010 0120     		movs	r0, #1
  59              	.LVL2:
  60 0012 2DE0     		b	.L2
  61              	.LVL3:
  62              	.L5:
  35:Led7_Seg.c    ****             break;
  36:Led7_Seg.c    ****         case 1:
  37:Led7_Seg.c    ****             ((dataNeedWrite & (1<<1)) == (1<<1)) ? (result = hight) : (result = low);
  63              		.loc 1 37 0
  64 0014 8307     		lsls	r3, r0, #30
  65 0016 1ED5     		bpl	.L14
  66 0018 0120     		movs	r0, #1
  67              	.LVL4:
  68 001a 29E0     		b	.L2
  69              	.LVL5:
  70              	.L6:
  38:Led7_Seg.c    ****             break;
  39:Led7_Seg.c    ****         case 2:
  40:Led7_Seg.c    ****             ((dataNeedWrite & (1<<2)) == (1<<2)) ? (result = hight) : (result = low);
  71              		.loc 1 40 0
  72 001c 4307     		lsls	r3, r0, #29
  73 001e 1CD5     		bpl	.L15
  74 0020 0120     		movs	r0, #1
ARM GAS  C:\Users\NGUYEN~1\AppData\Local\Temp\cciswJQ8.s 			page 3


  75              	.LVL6:
  76 0022 25E0     		b	.L2
  77              	.LVL7:
  78              	.L7:
  41:Led7_Seg.c    ****             break;
  42:Led7_Seg.c    ****         case 3:
  43:Led7_Seg.c    ****             ((dataNeedWrite & (1<<3)) == (1<<3) ) ? (result = hight) : (result = low);
  79              		.loc 1 43 0
  80 0024 0307     		lsls	r3, r0, #28
  81 0026 1AD5     		bpl	.L16
  82 0028 0120     		movs	r0, #1
  83              	.LVL8:
  84 002a 21E0     		b	.L2
  85              	.LVL9:
  86              	.L8:
  44:Led7_Seg.c    ****             break;
  45:Led7_Seg.c    ****         case 4:
  46:Led7_Seg.c    ****             ((dataNeedWrite & (1<<4)) == (1<<4) ) ? (result = hight) : (result = low);
  87              		.loc 1 46 0
  88 002c C306     		lsls	r3, r0, #27
  89 002e 18D5     		bpl	.L17
  90 0030 0120     		movs	r0, #1
  91              	.LVL10:
  92 0032 1DE0     		b	.L2
  93              	.LVL11:
  94              	.L9:
  47:Led7_Seg.c    ****             break;
  48:Led7_Seg.c    ****         case 5:
  49:Led7_Seg.c    ****             ((dataNeedWrite & (1<<5)) == (1<<5) ) ? (result = hight) : (result = low);
  95              		.loc 1 49 0
  96 0034 8306     		lsls	r3, r0, #26
  97 0036 16D5     		bpl	.L18
  98 0038 0120     		movs	r0, #1
  99              	.LVL12:
 100 003a 19E0     		b	.L2
 101              	.LVL13:
 102              	.L10:
  50:Led7_Seg.c    ****             break;
  51:Led7_Seg.c    ****         case 6:
  52:Led7_Seg.c    ****             ((dataNeedWrite & (1<<6)) == (1<<6) ) ? (result = hight) : (result = low);
 103              		.loc 1 52 0
 104 003c 4306     		lsls	r3, r0, #25
 105 003e 14D5     		bpl	.L19
 106 0040 0120     		movs	r0, #1
 107              	.LVL14:
 108 0042 15E0     		b	.L2
 109              	.LVL15:
 110              	.L11:
  53:Led7_Seg.c    ****             break;
  54:Led7_Seg.c    ****         case 7:
  55:Led7_Seg.c    ****             ((dataNeedWrite & (1<<7)) == (1<<7) ) ? (result = hight) : (result = low);
 111              		.loc 1 55 0
 112 0044 40B2     		sxtb	r0, r0
 113 0046 0028     		cmp	r0, #0
 114 0048 11DA     		bge	.L20
 115 004a 0120     		movs	r0, #1
 116              	.LVL16:
ARM GAS  C:\Users\NGUYEN~1\AppData\Local\Temp\cciswJQ8.s 			page 4


 117 004c 10E0     		b	.L2
 118              	.LVL17:
 119              	.L12:
  29:Led7_Seg.c    ****     
 120              		.loc 1 29 0
 121 004e 0020     		movs	r0, #0
 122              	.LVL18:
 123 0050 0EE0     		b	.L2
 124              	.LVL19:
 125              	.L13:
  34:Led7_Seg.c    ****             break;
 126              		.loc 1 34 0
 127 0052 0020     		movs	r0, #0
 128              	.LVL20:
 129 0054 0CE0     		b	.L2
 130              	.LVL21:
 131              	.L14:
  37:Led7_Seg.c    ****             break;
 132              		.loc 1 37 0
 133 0056 0020     		movs	r0, #0
 134              	.LVL22:
 135 0058 0AE0     		b	.L2
 136              	.LVL23:
 137              	.L15:
  40:Led7_Seg.c    ****             break;
 138              		.loc 1 40 0
 139 005a 0020     		movs	r0, #0
 140              	.LVL24:
 141 005c 08E0     		b	.L2
 142              	.LVL25:
 143              	.L16:
  43:Led7_Seg.c    ****             break;
 144              		.loc 1 43 0
 145 005e 0020     		movs	r0, #0
 146              	.LVL26:
 147 0060 06E0     		b	.L2
 148              	.LVL27:
 149              	.L17:
  46:Led7_Seg.c    ****             break;
 150              		.loc 1 46 0
 151 0062 0020     		movs	r0, #0
 152              	.LVL28:
 153 0064 04E0     		b	.L2
 154              	.LVL29:
 155              	.L18:
  49:Led7_Seg.c    ****             break;
 156              		.loc 1 49 0
 157 0066 0020     		movs	r0, #0
 158              	.LVL30:
 159 0068 02E0     		b	.L2
 160              	.LVL31:
 161              	.L19:
  52:Led7_Seg.c    ****             break;
 162              		.loc 1 52 0
 163 006a 0020     		movs	r0, #0
 164              	.LVL32:
 165 006c 00E0     		b	.L2
ARM GAS  C:\Users\NGUYEN~1\AppData\Local\Temp\cciswJQ8.s 			page 5


 166              	.LVL33:
 167              	.L20:
 168              		.loc 1 55 0
 169 006e 0020     		movs	r0, #0
 170              	.LVL34:
 171              	.L2:
  56:Led7_Seg.c    ****     }
  57:Led7_Seg.c    ****     
  58:Led7_Seg.c    ****     return result;
  59:Led7_Seg.c    **** }
 172              		.loc 1 59 0
 173              		@ sp needed
 174 0070 7047     		bx	lr
 175              	.L22:
 176 0072 C046     		.align	2
 177              	.L21:
 178 0074 00000000 		.word	.L4
 179              		.cfi_endproc
 180              	.LFE33:
 181              		.size	writeHightOrLow, .-writeHightOrLow
 182              		.section	.text.write_data,"ax",%progbits
 183              		.align	2
 184              		.global	write_data
 185              		.code	16
 186              		.thumb_func
 187              		.type	write_data, %function
 188              	write_data:
 189              	.LFB34:
  60:Led7_Seg.c    **** 
  61:Led7_Seg.c    **** void write_data(uint8 dataNeedWrite)
  62:Led7_Seg.c    **** {
 190              		.loc 1 62 0
 191              		.cfi_startproc
 192              		@ args = 0, pretend = 0, frame = 0
 193              		@ frame_needed = 0, uses_anonymous_args = 0
 194              	.LVL35:
 195 0000 10B5     		push	{r4, lr}
 196              		.cfi_def_cfa_offset 8
 197              		.cfi_offset 4, -8
 198              		.cfi_offset 14, -4
 199 0002 0400     		movs	r4, r0
  63:Led7_Seg.c    ****     Led_1_Write( writeHightOrLow(dataNeedWrite, 0) );
 200              		.loc 1 63 0
 201 0004 0021     		movs	r1, #0
 202 0006 FFF7FEFF 		bl	writeHightOrLow
 203              	.LVL36:
 204 000a FFF7FEFF 		bl	Led_1_Write
 205              	.LVL37:
  64:Led7_Seg.c    ****     Led_2_Write( writeHightOrLow(dataNeedWrite, 1) );
 206              		.loc 1 64 0
 207 000e 0121     		movs	r1, #1
 208 0010 2000     		movs	r0, r4
 209 0012 FFF7FEFF 		bl	writeHightOrLow
 210              	.LVL38:
 211 0016 FFF7FEFF 		bl	Led_2_Write
 212              	.LVL39:
  65:Led7_Seg.c    ****     Led_3_Write( writeHightOrLow(dataNeedWrite, 2) );
ARM GAS  C:\Users\NGUYEN~1\AppData\Local\Temp\cciswJQ8.s 			page 6


 213              		.loc 1 65 0
 214 001a 0221     		movs	r1, #2
 215 001c 2000     		movs	r0, r4
 216 001e FFF7FEFF 		bl	writeHightOrLow
 217              	.LVL40:
 218 0022 FFF7FEFF 		bl	Led_3_Write
 219              	.LVL41:
  66:Led7_Seg.c    ****     Led_4_Write( writeHightOrLow(dataNeedWrite, 3) );
 220              		.loc 1 66 0
 221 0026 0321     		movs	r1, #3
 222 0028 2000     		movs	r0, r4
 223 002a FFF7FEFF 		bl	writeHightOrLow
 224              	.LVL42:
 225 002e FFF7FEFF 		bl	Led_4_Write
 226              	.LVL43:
  67:Led7_Seg.c    ****     Led_5_Write( writeHightOrLow(dataNeedWrite, 4) );
 227              		.loc 1 67 0
 228 0032 0421     		movs	r1, #4
 229 0034 2000     		movs	r0, r4
 230 0036 FFF7FEFF 		bl	writeHightOrLow
 231              	.LVL44:
 232 003a FFF7FEFF 		bl	Led_5_Write
 233              	.LVL45:
  68:Led7_Seg.c    ****     Led_6_Write( writeHightOrLow(dataNeedWrite, 5) );
 234              		.loc 1 68 0
 235 003e 0521     		movs	r1, #5
 236 0040 2000     		movs	r0, r4
 237 0042 FFF7FEFF 		bl	writeHightOrLow
 238              	.LVL46:
 239 0046 FFF7FEFF 		bl	Led_6_Write
 240              	.LVL47:
  69:Led7_Seg.c    ****     Led_7_Write( writeHightOrLow(dataNeedWrite, 6) );
 241              		.loc 1 69 0
 242 004a 0621     		movs	r1, #6
 243 004c 2000     		movs	r0, r4
 244 004e FFF7FEFF 		bl	writeHightOrLow
 245              	.LVL48:
 246 0052 FFF7FEFF 		bl	Led_7_Write
 247              	.LVL49:
  70:Led7_Seg.c    ****     Led_8_Write( writeHightOrLow(dataNeedWrite, 7) );
 248              		.loc 1 70 0
 249 0056 0721     		movs	r1, #7
 250 0058 2000     		movs	r0, r4
 251 005a FFF7FEFF 		bl	writeHightOrLow
 252              	.LVL50:
 253 005e FFF7FEFF 		bl	Led_8_Write
 254              	.LVL51:
  71:Led7_Seg.c    **** }
 255              		.loc 1 71 0
 256              		@ sp needed
 257 0062 10BD     		pop	{r4, pc}
 258              		.cfi_endproc
 259              	.LFE34:
 260              		.size	write_data, .-write_data
 261              		.section	.text.control_Led_Light,"ax",%progbits
 262              		.align	2
 263              		.global	control_Led_Light
ARM GAS  C:\Users\NGUYEN~1\AppData\Local\Temp\cciswJQ8.s 			page 7


 264              		.code	16
 265              		.thumb_func
 266              		.type	control_Led_Light, %function
 267              	control_Led_Light:
 268              	.LFB35:
  72:Led7_Seg.c    **** 
  73:Led7_Seg.c    **** void control_Led_Light(int location)
  74:Led7_Seg.c    **** {
 269              		.loc 1 74 0
 270              		.cfi_startproc
 271              		@ args = 0, pretend = 0, frame = 0
 272              		@ frame_needed = 0, uses_anonymous_args = 0
 273              	.LVL52:
 274 0000 10B5     		push	{r4, lr}
 275              		.cfi_def_cfa_offset 8
 276              		.cfi_offset 4, -8
 277              		.cfi_offset 14, -4
  75:Led7_Seg.c    ****     switch(location)
 278              		.loc 1 75 0
 279 0002 0228     		cmp	r0, #2
 280 0004 15D0     		beq	.L26
 281 0006 02DC     		bgt	.L27
 282 0008 0128     		cmp	r0, #1
 283 000a 05D0     		beq	.L28
 284 000c 37E0     		b	.L24
 285              	.L27:
 286 000e 0328     		cmp	r0, #3
 287 0010 1CD0     		beq	.L29
 288 0012 0428     		cmp	r0, #4
 289 0014 27D0     		beq	.L30
 290 0016 32E0     		b	.L24
 291              	.L28:
  76:Led7_Seg.c    ****     {
  77:Led7_Seg.c    ****         case 1:
  78:Led7_Seg.c    ****             Control_Led7_1_Write(0);
 292              		.loc 1 78 0
 293 0018 0020     		movs	r0, #0
 294              	.LVL53:
 295 001a FFF7FEFF 		bl	Control_Led7_1_Write
 296              	.LVL54:
  79:Led7_Seg.c    ****             Control_Led7_2_Write(1);
 297              		.loc 1 79 0
 298 001e 0120     		movs	r0, #1
 299 0020 FFF7FEFF 		bl	Control_Led7_2_Write
 300              	.LVL55:
  80:Led7_Seg.c    ****             Control_Led7_3_Write(1);
 301              		.loc 1 80 0
 302 0024 0120     		movs	r0, #1
 303 0026 FFF7FEFF 		bl	Control_Led7_3_Write
 304              	.LVL56:
  81:Led7_Seg.c    ****             Control_Led7_4_Write(1);
 305              		.loc 1 81 0
 306 002a 0120     		movs	r0, #1
 307 002c FFF7FEFF 		bl	Control_Led7_4_Write
 308              	.LVL57:
  82:Led7_Seg.c    ****             break;
 309              		.loc 1 82 0
ARM GAS  C:\Users\NGUYEN~1\AppData\Local\Temp\cciswJQ8.s 			page 8


 310 0030 25E0     		b	.L24
 311              	.LVL58:
 312              	.L26:
  83:Led7_Seg.c    ****         case 2:
  84:Led7_Seg.c    ****             Control_Led7_1_Write(1);
 313              		.loc 1 84 0
 314 0032 0120     		movs	r0, #1
 315              	.LVL59:
 316 0034 FFF7FEFF 		bl	Control_Led7_1_Write
 317              	.LVL60:
  85:Led7_Seg.c    ****             Control_Led7_2_Write(0);
 318              		.loc 1 85 0
 319 0038 0020     		movs	r0, #0
 320 003a FFF7FEFF 		bl	Control_Led7_2_Write
 321              	.LVL61:
  86:Led7_Seg.c    ****             Control_Led7_3_Write(1);
 322              		.loc 1 86 0
 323 003e 0120     		movs	r0, #1
 324 0040 FFF7FEFF 		bl	Control_Led7_3_Write
 325              	.LVL62:
  87:Led7_Seg.c    ****             Control_Led7_4_Write(1);
 326              		.loc 1 87 0
 327 0044 0120     		movs	r0, #1
 328 0046 FFF7FEFF 		bl	Control_Led7_4_Write
 329              	.LVL63:
  88:Led7_Seg.c    ****             break;
 330              		.loc 1 88 0
 331 004a 18E0     		b	.L24
 332              	.LVL64:
 333              	.L29:
  89:Led7_Seg.c    ****         case 3:
  90:Led7_Seg.c    ****             Control_Led7_1_Write(1);
 334              		.loc 1 90 0
 335 004c 0120     		movs	r0, #1
 336              	.LVL65:
 337 004e FFF7FEFF 		bl	Control_Led7_1_Write
 338              	.LVL66:
  91:Led7_Seg.c    ****             Control_Led7_2_Write(1);
 339              		.loc 1 91 0
 340 0052 0120     		movs	r0, #1
 341 0054 FFF7FEFF 		bl	Control_Led7_2_Write
 342              	.LVL67:
  92:Led7_Seg.c    ****             Control_Led7_3_Write(0);
 343              		.loc 1 92 0
 344 0058 0020     		movs	r0, #0
 345 005a FFF7FEFF 		bl	Control_Led7_3_Write
 346              	.LVL68:
  93:Led7_Seg.c    ****             Control_Led7_4_Write(1);
 347              		.loc 1 93 0
 348 005e 0120     		movs	r0, #1
 349 0060 FFF7FEFF 		bl	Control_Led7_4_Write
 350              	.LVL69:
  94:Led7_Seg.c    ****             break;
 351              		.loc 1 94 0
 352 0064 0BE0     		b	.L24
 353              	.LVL70:
 354              	.L30:
ARM GAS  C:\Users\NGUYEN~1\AppData\Local\Temp\cciswJQ8.s 			page 9


  95:Led7_Seg.c    ****         case 4:
  96:Led7_Seg.c    ****             Control_Led7_1_Write(1);
 355              		.loc 1 96 0
 356 0066 0120     		movs	r0, #1
 357              	.LVL71:
 358 0068 FFF7FEFF 		bl	Control_Led7_1_Write
 359              	.LVL72:
  97:Led7_Seg.c    ****             Control_Led7_2_Write(1);
 360              		.loc 1 97 0
 361 006c 0120     		movs	r0, #1
 362 006e FFF7FEFF 		bl	Control_Led7_2_Write
 363              	.LVL73:
  98:Led7_Seg.c    ****             Control_Led7_3_Write(1);
 364              		.loc 1 98 0
 365 0072 0120     		movs	r0, #1
 366 0074 FFF7FEFF 		bl	Control_Led7_3_Write
 367              	.LVL74:
  99:Led7_Seg.c    ****             Control_Led7_4_Write(0);
 368              		.loc 1 99 0
 369 0078 0020     		movs	r0, #0
 370 007a FFF7FEFF 		bl	Control_Led7_4_Write
 371              	.LVL75:
 372              	.L24:
 100:Led7_Seg.c    ****             break;
 101:Led7_Seg.c    ****     }
 102:Led7_Seg.c    **** }
 373              		.loc 1 102 0
 374              		@ sp needed
 375 007e 10BD     		pop	{r4, pc}
 376              		.cfi_endproc
 377              	.LFE35:
 378              		.size	control_Led_Light, .-control_Led_Light
 379              		.section	.text.turnOffAllLed,"ax",%progbits
 380              		.align	2
 381              		.global	turnOffAllLed
 382              		.code	16
 383              		.thumb_func
 384              		.type	turnOffAllLed, %function
 385              	turnOffAllLed:
 386              	.LFB36:
 103:Led7_Seg.c    **** 
 104:Led7_Seg.c    **** void turnOffAllLed()
 105:Led7_Seg.c    **** {
 387              		.loc 1 105 0
 388              		.cfi_startproc
 389              		@ args = 0, pretend = 0, frame = 0
 390              		@ frame_needed = 0, uses_anonymous_args = 0
 391 0000 10B5     		push	{r4, lr}
 392              		.cfi_def_cfa_offset 8
 393              		.cfi_offset 4, -8
 394              		.cfi_offset 14, -4
 106:Led7_Seg.c    ****     Control_Led7_1_Write(1);
 395              		.loc 1 106 0
 396 0002 0120     		movs	r0, #1
 397 0004 FFF7FEFF 		bl	Control_Led7_1_Write
 398              	.LVL76:
 107:Led7_Seg.c    ****     Control_Led7_2_Write(1);
ARM GAS  C:\Users\NGUYEN~1\AppData\Local\Temp\cciswJQ8.s 			page 10


 399              		.loc 1 107 0
 400 0008 0120     		movs	r0, #1
 401 000a FFF7FEFF 		bl	Control_Led7_2_Write
 402              	.LVL77:
 108:Led7_Seg.c    ****     Control_Led7_3_Write(1);
 403              		.loc 1 108 0
 404 000e 0120     		movs	r0, #1
 405 0010 FFF7FEFF 		bl	Control_Led7_3_Write
 406              	.LVL78:
 109:Led7_Seg.c    ****     Control_Led7_4_Write(1);
 407              		.loc 1 109 0
 408 0014 0120     		movs	r0, #1
 409 0016 FFF7FEFF 		bl	Control_Led7_4_Write
 410              	.LVL79:
 110:Led7_Seg.c    **** }
 411              		.loc 1 110 0
 412              		@ sp needed
 413 001a 10BD     		pop	{r4, pc}
 414              		.cfi_endproc
 415              	.LFE36:
 416              		.size	turnOffAllLed, .-turnOffAllLed
 417              		.global	__aeabi_uidiv
 418              		.global	__aeabi_uidivmod
 419              		.section	.text.scanLed,"ax",%progbits
 420              		.align	2
 421              		.global	scanLed
 422              		.code	16
 423              		.thumb_func
 424              		.type	scanLed, %function
 425              	scanLed:
 426              	.LFB37:
 111:Led7_Seg.c    **** 
 112:Led7_Seg.c    **** void scanLed(unsigned int number)
 113:Led7_Seg.c    **** {
 427              		.loc 1 113 0
 428              		.cfi_startproc
 429              		@ args = 0, pretend = 0, frame = 0
 430              		@ frame_needed = 0, uses_anonymous_args = 0
 431              	.LVL80:
 432 0000 F8B5     		push	{r3, r4, r5, r6, r7, lr}
 433              		.cfi_def_cfa_offset 24
 434              		.cfi_offset 3, -24
 435              		.cfi_offset 4, -20
 436              		.cfi_offset 5, -16
 437              		.cfi_offset 6, -12
 438              		.cfi_offset 7, -8
 439              		.cfi_offset 14, -4
 440 0002 4F46     		mov	r7, r9
 441 0004 4646     		mov	r6, r8
 442 0006 C0B4     		push	{r6, r7}
 443              		.cfi_def_cfa_offset 32
 444              		.cfi_offset 8, -32
 445              		.cfi_offset 9, -28
 446 0008 0400     		movs	r4, r0
 114:Led7_Seg.c    ****     uint8 nghin = number/1000;
 447              		.loc 1 114 0
 448 000a FA21     		movs	r1, #250
ARM GAS  C:\Users\NGUYEN~1\AppData\Local\Temp\cciswJQ8.s 			page 11


 449 000c 8900     		lsls	r1, r1, #2
 450 000e FFF7FEFF 		bl	__aeabi_uidiv
 451              	.LVL81:
 452 0012 8146     		mov	r9, r0
 453              	.LVL82:
 115:Led7_Seg.c    ****     uint8 tram = (number%1000)/100;
 454              		.loc 1 115 0
 455 0014 FA21     		movs	r1, #250
 456 0016 8900     		lsls	r1, r1, #2
 457 0018 2000     		movs	r0, r4
 458 001a FFF7FEFF 		bl	__aeabi_uidivmod
 459              	.LVL83:
 460 001e 0800     		movs	r0, r1
 461 0020 6421     		movs	r1, #100
 462 0022 FFF7FEFF 		bl	__aeabi_uidiv
 463              	.LVL84:
 464 0026 8046     		mov	r8, r0
 465              	.LVL85:
 116:Led7_Seg.c    ****     uint8 chuc = (number%100)/10;
 466              		.loc 1 116 0
 467 0028 6421     		movs	r1, #100
 468 002a 2000     		movs	r0, r4
 469 002c FFF7FEFF 		bl	__aeabi_uidivmod
 470              	.LVL86:
 471 0030 0800     		movs	r0, r1
 472 0032 0A21     		movs	r1, #10
 473 0034 FFF7FEFF 		bl	__aeabi_uidiv
 474              	.LVL87:
 475 0038 0700     		movs	r7, r0
 476              	.LVL88:
 117:Led7_Seg.c    ****     uint8 donvi = (number%10);
 477              		.loc 1 117 0
 478 003a 0A21     		movs	r1, #10
 479 003c 2000     		movs	r0, r4
 480 003e FFF7FEFF 		bl	__aeabi_uidivmod
 481              	.LVL89:
 482 0042 0E00     		movs	r6, r1
 483              	.LVL90:
 118:Led7_Seg.c    ****     
 119:Led7_Seg.c    ****     // Display led 1
 120:Led7_Seg.c    ****     control_Led_Light(4);
 484              		.loc 1 120 0
 485 0044 0420     		movs	r0, #4
 486 0046 FFF7FEFF 		bl	control_Led_Light
 487              	.LVL91:
 121:Led7_Seg.c    ****     write_data(code_Led7_Seg[nghin]);
 488              		.loc 1 121 0
 489 004a 1A4C     		ldr	r4, .L33
 490              	.LVL92:
 491 004c FF25     		movs	r5, #255
 492 004e 4B46     		mov	r3, r9
 493 0050 2B40     		ands	r3, r5
 494 0052 E05C     		ldrb	r0, [r4, r3]
 495 0054 FFF7FEFF 		bl	write_data
 496              	.LVL93:
 122:Led7_Seg.c    ****      CyDelay(5);
 497              		.loc 1 122 0
ARM GAS  C:\Users\NGUYEN~1\AppData\Local\Temp\cciswJQ8.s 			page 12


 498 0058 0520     		movs	r0, #5
 499 005a FFF7FEFF 		bl	CyDelay
 500              	.LVL94:
 123:Led7_Seg.c    ****     turnOffAllLed();
 501              		.loc 1 123 0
 502 005e FFF7FEFF 		bl	turnOffAllLed
 503              	.LVL95:
 124:Led7_Seg.c    ****     
 125:Led7_Seg.c    ****     // Display led 2
 126:Led7_Seg.c    ****     control_Led_Light(3);
 504              		.loc 1 126 0
 505 0062 0320     		movs	r0, #3
 506 0064 FFF7FEFF 		bl	control_Led_Light
 507              	.LVL96:
 127:Led7_Seg.c    ****     write_data(code_Led7_Seg[tram]);
 508              		.loc 1 127 0
 509 0068 4346     		mov	r3, r8
 510 006a 2B40     		ands	r3, r5
 511 006c E05C     		ldrb	r0, [r4, r3]
 512 006e FFF7FEFF 		bl	write_data
 513              	.LVL97:
 128:Led7_Seg.c    ****     CyDelay(5);
 514              		.loc 1 128 0
 515 0072 0520     		movs	r0, #5
 516 0074 FFF7FEFF 		bl	CyDelay
 517              	.LVL98:
 129:Led7_Seg.c    ****     turnOffAllLed();
 518              		.loc 1 129 0
 519 0078 FFF7FEFF 		bl	turnOffAllLed
 520              	.LVL99:
 130:Led7_Seg.c    ****     
 131:Led7_Seg.c    ****     // Display led 3
 132:Led7_Seg.c    ****     control_Led_Light(2);
 521              		.loc 1 132 0
 522 007c 0220     		movs	r0, #2
 523 007e FFF7FEFF 		bl	control_Led_Light
 524              	.LVL100:
 133:Led7_Seg.c    ****     write_data(code_Led7_Seg[chuc]);
 525              		.loc 1 133 0
 526 0082 2F40     		ands	r7, r5
 527              	.LVL101:
 528 0084 E05D     		ldrb	r0, [r4, r7]
 529 0086 FFF7FEFF 		bl	write_data
 530              	.LVL102:
 134:Led7_Seg.c    ****     CyDelay(5);
 531              		.loc 1 134 0
 532 008a 0520     		movs	r0, #5
 533 008c FFF7FEFF 		bl	CyDelay
 534              	.LVL103:
 135:Led7_Seg.c    ****     turnOffAllLed();
 535              		.loc 1 135 0
 536 0090 FFF7FEFF 		bl	turnOffAllLed
 537              	.LVL104:
 136:Led7_Seg.c    ****     
 137:Led7_Seg.c    ****     // Display led 4
 138:Led7_Seg.c    ****     control_Led_Light(1);
 538              		.loc 1 138 0
ARM GAS  C:\Users\NGUYEN~1\AppData\Local\Temp\cciswJQ8.s 			page 13


 539 0094 0120     		movs	r0, #1
 540 0096 FFF7FEFF 		bl	control_Led_Light
 541              	.LVL105:
 139:Led7_Seg.c    ****     write_data(code_Led7_Seg[donvi]);
 542              		.loc 1 139 0
 543 009a 3540     		ands	r5, r6
 544 009c 605D     		ldrb	r0, [r4, r5]
 545 009e FFF7FEFF 		bl	write_data
 546              	.LVL106:
 140:Led7_Seg.c    ****     CyDelay(5);    
 547              		.loc 1 140 0
 548 00a2 0520     		movs	r0, #5
 549 00a4 FFF7FEFF 		bl	CyDelay
 550              	.LVL107:
 141:Led7_Seg.c    ****     turnOffAllLed();
 551              		.loc 1 141 0
 552 00a8 FFF7FEFF 		bl	turnOffAllLed
 553              	.LVL108:
 142:Led7_Seg.c    **** }
 554              		.loc 1 142 0
 555              		@ sp needed
 556              	.LVL109:
 557              	.LVL110:
 558              	.LVL111:
 559 00ac 0CBC     		pop	{r2, r3}
 560 00ae 9046     		mov	r8, r2
 561 00b0 9946     		mov	r9, r3
 562 00b2 F8BD     		pop	{r3, r4, r5, r6, r7, pc}
 563              	.L34:
 564              		.align	2
 565              	.L33:
 566 00b4 00000000 		.word	.LANCHOR0
 567              		.cfi_endproc
 568              	.LFE37:
 569              		.size	scanLed, .-scanLed
 570              		.section	.text.checkLedLiveOrDie,"ax",%progbits
 571              		.align	2
 572              		.global	checkLedLiveOrDie
 573              		.code	16
 574              		.thumb_func
 575              		.type	checkLedLiveOrDie, %function
 576              	checkLedLiveOrDie:
 577              	.LFB38:
 143:Led7_Seg.c    **** 
 144:Led7_Seg.c    **** void checkLedLiveOrDie(uint8 location, uint8 data)
 145:Led7_Seg.c    **** {
 578              		.loc 1 145 0
 579              		.cfi_startproc
 580              		@ args = 0, pretend = 0, frame = 0
 581              		@ frame_needed = 0, uses_anonymous_args = 0
 582              	.LVL112:
 583 0000 10B5     		push	{r4, lr}
 584              		.cfi_def_cfa_offset 8
 585              		.cfi_offset 4, -8
 586              		.cfi_offset 14, -4
 587 0002 0C00     		movs	r4, r1
 146:Led7_Seg.c    ****     control_Led_Light(location); 
ARM GAS  C:\Users\NGUYEN~1\AppData\Local\Temp\cciswJQ8.s 			page 14


 588              		.loc 1 146 0
 589 0004 FFF7FEFF 		bl	control_Led_Light
 590              	.LVL113:
 147:Led7_Seg.c    ****     
 148:Led7_Seg.c    ****     write_data(data);
 591              		.loc 1 148 0
 592 0008 2000     		movs	r0, r4
 593 000a FFF7FEFF 		bl	write_data
 594              	.LVL114:
 149:Led7_Seg.c    ****     
 150:Led7_Seg.c    ****     CyDelay(5);
 595              		.loc 1 150 0
 596 000e 0520     		movs	r0, #5
 597 0010 FFF7FEFF 		bl	CyDelay
 598              	.LVL115:
 151:Led7_Seg.c    ****     turnOffAllLed();
 599              		.loc 1 151 0
 600 0014 FFF7FEFF 		bl	turnOffAllLed
 601              	.LVL116:
 152:Led7_Seg.c    **** }
 602              		.loc 1 152 0
 603              		@ sp needed
 604 0018 10BD     		pop	{r4, pc}
 605              		.cfi_endproc
 606              	.LFE38:
 607              		.size	checkLedLiveOrDie, .-checkLedLiveOrDie
 608              		.global	code_Led7_Seg
 609 001a C046     		.data
 610              		.align	2
 611              		.set	.LANCHOR0,. + 0
 612              		.type	code_Led7_Seg, %object
 613              		.size	code_Led7_Seg, 10
 614              	code_Led7_Seg:
 615 0000 FC       		.byte	-4
 616 0001 60       		.byte	96
 617 0002 DA       		.byte	-38
 618 0003 F2       		.byte	-14
 619 0004 66       		.byte	102
 620 0005 B6       		.byte	-74
 621 0006 BE       		.byte	-66
 622 0007 E0       		.byte	-32
 623 0008 FE       		.byte	-2
 624 0009 F6       		.byte	-10
 625              		.text
 626              	.Letext0:
 627              		.file 2 "Generated_Source\\PSoC4/Led_1.h"
 628              		.file 3 "Generated_Source\\PSoC4/Led_2.h"
 629              		.file 4 "Generated_Source\\PSoC4/Led_3.h"
 630              		.file 5 "Generated_Source\\PSoC4/Led_4.h"
 631              		.file 6 "Generated_Source\\PSoC4/Led_5.h"
 632              		.file 7 "Generated_Source\\PSoC4/Led_6.h"
 633              		.file 8 "Generated_Source\\PSoC4/Led_7.h"
 634              		.file 9 "Generated_Source\\PSoC4/Led_8.h"
 635              		.file 10 "Generated_Source\\PSoC4/Control_Led7_1.h"
 636              		.file 11 "Generated_Source\\PSoC4/Control_Led7_2.h"
 637              		.file 12 "Generated_Source\\PSoC4/Control_Led7_3.h"
 638              		.file 13 "Generated_Source\\PSoC4/Control_Led7_4.h"
ARM GAS  C:\Users\NGUYEN~1\AppData\Local\Temp\cciswJQ8.s 			page 15


 639              		.file 14 "Generated_Source\\PSoC4/CyLib.h"
 640              		.file 15 "Generated_Source\\PSoC4/cytypes.h"