ARM GAS  C:\Users\NGUYEN~1\AppData\Local\Temp\ccpfjWe0.s 			page 1


   1              		.syntax unified
   2              		.cpu cortex-m0
   3              		.fpu softvfp
   4              		.eabi_attribute 20, 1
   5              		.eabi_attribute 21, 1
   6              		.eabi_attribute 23, 3
   7              		.eabi_attribute 24, 1
   8              		.eabi_attribute 25, 1
   9              		.eabi_attribute 26, 1
  10              		.eabi_attribute 30, 1
  11              		.eabi_attribute 34, 0
  12              		.eabi_attribute 18, 4
  13              		.thumb
  14              		.syntax unified
  15              		.file	"ledSingle.c"
  16              		.text
  17              	.Ltext0:
  18              		.cfi_sections	.debug_frame
  19              		.section	.text.ledTurnOff,"ax",%progbits
  20              		.align	2
  21              		.global	ledTurnOff
  22              		.code	16
  23              		.thumb_func
  24              		.type	ledTurnOff, %function
  25              	ledTurnOff:
  26              	.LFB32:
  27              		.file 1 "ledSingle.c"
   1:ledSingle.c   **** /* ========================================
   2:ledSingle.c   ****  *
   3:ledSingle.c   ****  * Copyright YOUR COMPANY, THE YEAR
   4:ledSingle.c   ****  * All Rights Reserved
   5:ledSingle.c   ****  * UNPUBLISHED, LICENSED SOFTWARE.
   6:ledSingle.c   ****  *
   7:ledSingle.c   ****  * CONFIDENTIAL AND PROPRIETARY INFORMATION
   8:ledSingle.c   ****  * WHICH IS THE PROPERTY OF your company.
   9:ledSingle.c   ****  *
  10:ledSingle.c   ****  * ========================================
  11:ledSingle.c   **** */
  12:ledSingle.c   **** 
  13:ledSingle.c   ****     #include "ledSingle.h"
  14:ledSingle.c   **** 
  15:ledSingle.c   ****     void ledTurnOff(int digit)
  16:ledSingle.c   ****     {
  28              		.loc 1 16 0
  29              		.cfi_startproc
  30              		@ args = 0, pretend = 0, frame = 0
  31              		@ frame_needed = 0, uses_anonymous_args = 0
  32              	.LVL0:
  33 0000 10B5     		push	{r4, lr}
  34              		.cfi_def_cfa_offset 8
  35              		.cfi_offset 4, -8
  36              		.cfi_offset 14, -4
  17:ledSingle.c   ****         switch(digit)
  37              		.loc 1 17 0
  38 0002 0228     		cmp	r0, #2
  39 0004 0CD0     		beq	.L3
  40 0006 02DC     		bgt	.L4
ARM GAS  C:\Users\NGUYEN~1\AppData\Local\Temp\ccpfjWe0.s 			page 2


  41 0008 0128     		cmp	r0, #1
  42 000a 05D0     		beq	.L5
  43 000c 13E0     		b	.L1
  44              	.L4:
  45 000e 0328     		cmp	r0, #3
  46 0010 0AD0     		beq	.L6
  47 0012 0428     		cmp	r0, #4
  48 0014 0CD0     		beq	.L7
  49 0016 0EE0     		b	.L1
  50              	.L5:
  18:ledSingle.c   ****         {
  19:ledSingle.c   ****             case 1:
  20:ledSingle.c   ****                 ledBlue_Write(1);
  51              		.loc 1 20 0
  52 0018 0120     		movs	r0, #1
  53              	.LVL1:
  54 001a FFF7FEFF 		bl	ledBlue_Write
  55              	.LVL2:
  21:ledSingle.c   ****                 break;
  56              		.loc 1 21 0
  57 001e 0AE0     		b	.L1
  58              	.LVL3:
  59              	.L3:
  22:ledSingle.c   ****             case 2:
  23:ledSingle.c   ****                 ledGreen_Write(1);
  60              		.loc 1 23 0
  61 0020 0120     		movs	r0, #1
  62              	.LVL4:
  63 0022 FFF7FEFF 		bl	ledGreen_Write
  64              	.LVL5:
  24:ledSingle.c   ****                 break;
  65              		.loc 1 24 0
  66 0026 06E0     		b	.L1
  67              	.LVL6:
  68              	.L6:
  25:ledSingle.c   ****             case 3:
  26:ledSingle.c   ****                 ledRed_Write(1);
  69              		.loc 1 26 0
  70 0028 0120     		movs	r0, #1
  71              	.LVL7:
  72 002a FFF7FEFF 		bl	ledRed_Write
  73              	.LVL8:
  27:ledSingle.c   ****                 break;
  74              		.loc 1 27 0
  75 002e 02E0     		b	.L1
  76              	.LVL9:
  77              	.L7:
  28:ledSingle.c   ****             case 4:
  29:ledSingle.c   ****                 ledYellow_Write(1);
  78              		.loc 1 29 0
  79 0030 0120     		movs	r0, #1
  80              	.LVL10:
  81 0032 FFF7FEFF 		bl	ledYellow_Write
  82              	.LVL11:
  83              	.L1:
  30:ledSingle.c   ****                 break;
  31:ledSingle.c   ****         }
ARM GAS  C:\Users\NGUYEN~1\AppData\Local\Temp\ccpfjWe0.s 			page 3


  32:ledSingle.c   ****     }
  84              		.loc 1 32 0
  85              		@ sp needed
  86 0036 10BD     		pop	{r4, pc}
  87              		.cfi_endproc
  88              	.LFE32:
  89              		.size	ledTurnOff, .-ledTurnOff
  90              		.section	.text.ledTurnOn,"ax",%progbits
  91              		.align	2
  92              		.global	ledTurnOn
  93              		.code	16
  94              		.thumb_func
  95              		.type	ledTurnOn, %function
  96              	ledTurnOn:
  97              	.LFB33:
  33:ledSingle.c   **** 
  34:ledSingle.c   **** 
  35:ledSingle.c   ****     void ledTurnOn(int digit)
  36:ledSingle.c   ****     {
  98              		.loc 1 36 0
  99              		.cfi_startproc
 100              		@ args = 0, pretend = 0, frame = 0
 101              		@ frame_needed = 0, uses_anonymous_args = 0
 102              	.LVL12:
 103 0000 10B5     		push	{r4, lr}
 104              		.cfi_def_cfa_offset 8
 105              		.cfi_offset 4, -8
 106              		.cfi_offset 14, -4
  37:ledSingle.c   ****         switch(digit)
 107              		.loc 1 37 0
 108 0002 0228     		cmp	r0, #2
 109 0004 0CD0     		beq	.L10
 110 0006 02DC     		bgt	.L11
 111 0008 0128     		cmp	r0, #1
 112 000a 05D0     		beq	.L12
 113 000c 13E0     		b	.L8
 114              	.L11:
 115 000e 0328     		cmp	r0, #3
 116 0010 0AD0     		beq	.L13
 117 0012 0428     		cmp	r0, #4
 118 0014 0CD0     		beq	.L14
 119 0016 0EE0     		b	.L8
 120              	.L12:
  38:ledSingle.c   ****         {
  39:ledSingle.c   ****             case 1:
  40:ledSingle.c   ****                 ledBlue_Write(0);
 121              		.loc 1 40 0
 122 0018 0020     		movs	r0, #0
 123              	.LVL13:
 124 001a FFF7FEFF 		bl	ledBlue_Write
 125              	.LVL14:
  41:ledSingle.c   ****                 break;
 126              		.loc 1 41 0
 127 001e 0AE0     		b	.L8
 128              	.LVL15:
 129              	.L10:
  42:ledSingle.c   ****             case 2:
ARM GAS  C:\Users\NGUYEN~1\AppData\Local\Temp\ccpfjWe0.s 			page 4


  43:ledSingle.c   ****                 ledGreen_Write(0);
 130              		.loc 1 43 0
 131 0020 0020     		movs	r0, #0
 132              	.LVL16:
 133 0022 FFF7FEFF 		bl	ledGreen_Write
 134              	.LVL17:
  44:ledSingle.c   ****                 break;
 135              		.loc 1 44 0
 136 0026 06E0     		b	.L8
 137              	.LVL18:
 138              	.L13:
  45:ledSingle.c   ****             case 3:
  46:ledSingle.c   ****                 ledRed_Write(0);
 139              		.loc 1 46 0
 140 0028 0020     		movs	r0, #0
 141              	.LVL19:
 142 002a FFF7FEFF 		bl	ledRed_Write
 143              	.LVL20:
  47:ledSingle.c   ****                 break;
 144              		.loc 1 47 0
 145 002e 02E0     		b	.L8
 146              	.LVL21:
 147              	.L14:
  48:ledSingle.c   ****             case 4:
  49:ledSingle.c   ****                 ledYellow_Write(0);
 148              		.loc 1 49 0
 149 0030 0020     		movs	r0, #0
 150              	.LVL22:
 151 0032 FFF7FEFF 		bl	ledYellow_Write
 152              	.LVL23:
 153              	.L8:
  50:ledSingle.c   ****                 break;
  51:ledSingle.c   ****         }
  52:ledSingle.c   ****     }
 154              		.loc 1 52 0
 155              		@ sp needed
 156 0036 10BD     		pop	{r4, pc}
 157              		.cfi_endproc
 158              	.LFE33:
 159              		.size	ledTurnOn, .-ledTurnOn
 160              		.text
 161              	.Letext0:
 162              		.file 2 "Generated_Source\\PSoC4/ledBlue.h"
 163              		.file 3 "Generated_Source\\PSoC4/ledGreen.h"
 164              		.file 4 "Generated_Source\\PSoC4/ledRed.h"
 165              		.file 5 "Generated_Source\\PSoC4/ledYellow.h"