ARM GAS  C:\Users\NGUYEN~1\AppData\Local\Temp\ccN9DnLM.s 			page 1


   1              		.syntax unified
   2              		.cpu cortex-m0
   3              		.fpu softvfp
   4              		.eabi_attribute 20, 1
   5              		.eabi_attribute 21, 1
   6              		.eabi_attribute 23, 3
   7              		.eabi_attribute 24, 1
   8              		.eabi_attribute 25, 1
   9              		.eabi_attribute 26, 1
  10              		.eabi_attribute 30, 1
  11              		.eabi_attribute 34, 0
  12              		.eabi_attribute 18, 4
  13              		.thumb
  14              		.syntax unified
  15              		.file	"main.c"
  16              		.text
  17              	.Ltext0:
  18              		.cfi_sections	.debug_frame
  19              		.section	.text.buttonHandle,"ax",%progbits
  20              		.align	2
  21              		.global	buttonHandle
  22              		.code	16
  23              		.thumb_func
  24              		.type	buttonHandle, %function
  25              	buttonHandle:
  26              	.LFB33:
  27              		.file 1 "main.c"
   1:main.c        **** /* ========================================
   2:main.c        ****  *
   3:main.c        ****  * Copyright YOUR COMPANY, THE YEAR
   4:main.c        ****  * All Rights Reserved
   5:main.c        ****  * UNPUBLISHED, LICENSED SOFTWARE.
   6:main.c        ****  *
   7:main.c        ****  * CONFIDENTIAL AND PROPRIETARY INFORMATION
   8:main.c        ****  * WHICH IS THE PROPERTY OF your company.
   9:main.c        ****  *
  10:main.c        ****  * ========================================
  11:main.c        **** */
  12:main.c        **** #include "main.h"
  13:main.c        **** 
  14:main.c        **** 
  15:main.c        **** int main(void)
  16:main.c        **** {
  17:main.c        ****     CyGlobalIntEnable; /* Enable global interrupts. */
  18:main.c        **** 
  19:main.c        ****     /* Place your initialization/startup code here (e.g. MyInst_Start()) */
  20:main.c        ****     
  21:main.c        ****     gnd_Write(0);
  22:main.c        **** 
  23:main.c        ****     for(;;)
  24:main.c        ****     {
  25:main.c        ****         /* Place your application code here. */
  26:main.c        ****         buttonHandle();
  27:main.c        ****     }
  28:main.c        **** }
  29:main.c        **** 
  30:main.c        **** void buttonHandle()
ARM GAS  C:\Users\NGUYEN~1\AppData\Local\Temp\ccN9DnLM.s 			page 2


  31:main.c        **** {
  28              		.loc 1 31 0
  29              		.cfi_startproc
  30              		@ args = 0, pretend = 0, frame = 0
  31              		@ frame_needed = 0, uses_anonymous_args = 0
  32 0000 10B5     		push	{r4, lr}
  33              		.cfi_def_cfa_offset 8
  34              		.cfi_offset 4, -8
  35              		.cfi_offset 14, -4
  32:main.c        ****     
  33:main.c        ****     ledTurnOn( valuePressButton() );
  36              		.loc 1 33 0
  37 0002 FFF7FEFF 		bl	valuePressButton
  38              	.LVL0:
  39 0006 FFF7FEFF 		bl	ledTurnOn
  40              	.LVL1:
  34:main.c        ****     
  35:main.c        ****     CyDelay(2000);
  41              		.loc 1 35 0
  42 000a FA20     		movs	r0, #250
  43 000c C000     		lsls	r0, r0, #3
  44 000e FFF7FEFF 		bl	CyDelay
  45              	.LVL2:
  36:main.c        ****     
  37:main.c        ****     ledTurnOff( valuePressButton() );    
  46              		.loc 1 37 0
  47 0012 FFF7FEFF 		bl	valuePressButton
  48              	.LVL3:
  49 0016 FFF7FEFF 		bl	ledTurnOff
  50              	.LVL4:
  38:main.c        **** }
  51              		.loc 1 38 0
  52              		@ sp needed
  53 001a 10BD     		pop	{r4, pc}
  54              		.cfi_endproc
  55              	.LFE33:
  56              		.size	buttonHandle, .-buttonHandle
  57              		.section	.text.main,"ax",%progbits
  58              		.align	2
  59              		.global	main
  60              		.code	16
  61              		.thumb_func
  62              		.type	main, %function
  63              	main:
  64              	.LFB32:
  16:main.c        ****     CyGlobalIntEnable; /* Enable global interrupts. */
  65              		.loc 1 16 0
  66              		.cfi_startproc
  67              		@ Volatile: function does not return.
  68              		@ args = 0, pretend = 0, frame = 0
  69              		@ frame_needed = 0, uses_anonymous_args = 0
  70 0000 10B5     		push	{r4, lr}
  71              		.cfi_def_cfa_offset 8
  72              		.cfi_offset 4, -8
  73              		.cfi_offset 14, -4
  17:main.c        **** 
  74              		.loc 1 17 0
ARM GAS  C:\Users\NGUYEN~1\AppData\Local\Temp\ccN9DnLM.s 			page 3


  75              		.syntax divided
  76              	@ 17 "main.c" 1
  77 0002 62B6     		CPSIE   i
  78              	@ 0 "" 2
  21:main.c        **** 
  79              		.loc 1 21 0
  80              		.thumb
  81              		.syntax unified
  82 0004 0020     		movs	r0, #0
  83 0006 FFF7FEFF 		bl	gnd_Write
  84              	.LVL5:
  85              	.L3:
  26:main.c        ****     }
  86              		.loc 1 26 0 discriminator 1
  87 000a FFF7FEFF 		bl	buttonHandle
  88              	.LVL6:
  89 000e FCE7     		b	.L3
  90              		.cfi_endproc
  91              	.LFE32:
  92              		.size	main, .-main
  93              		.text
  94              	.Letext0:
  95              		.file 2 "buttonBlack.h"
  96              		.file 3 "ledSingle.h"
  97              		.file 4 "Generated_Source\\PSoC4/CyLib.h"
  98              		.file 5 "Generated_Source\\PSoC4/gnd.h"