ARM GAS  C:\Users\NGUYEN~1\AppData\Local\Temp\ccN83qSe.s 			page 1


   1              		.syntax unified
   2              		.cpu cortex-m0
   3              		.fpu softvfp
   4              		.eabi_attribute 20, 1
   5              		.eabi_attribute 21, 1
   6              		.eabi_attribute 23, 3
   7              		.eabi_attribute 24, 1
   8              		.eabi_attribute 25, 1
   9              		.eabi_attribute 26, 1
  10              		.eabi_attribute 30, 1
  11              		.eabi_attribute 34, 0
  12              		.eabi_attribute 18, 4
  13              		.thumb
  14              		.syntax unified
  15              		.file	"main.c"
  16              		.text
  17              	.Ltext0:
  18              		.cfi_sections	.debug_frame
  19              		.section	.text.main,"ax",%progbits
  20              		.align	2
  21              		.global	main
  22              		.code	16
  23              		.thumb_func
  24              		.type	main, %function
  25              	main:
  26              	.LFB32:
  27              		.file 1 "main.c"
   1:main.c        **** /* ========================================
   2:main.c        ****  *
   3:main.c        ****  * Copyright YOUR COMPANY, THE YEAR
   4:main.c        ****  * All Rights Reserved
   5:main.c        ****  * UNPUBLISHED, LICENSED SOFTWARE.
   6:main.c        ****  *
   7:main.c        ****  * CONFIDENTIAL AND PROPRIETARY INFORMATION
   8:main.c        ****  * WHICH IS THE PROPERTY OF your company.
   9:main.c        ****  *
  10:main.c        ****  * ========================================
  11:main.c        **** */
  12:main.c        **** #include "project.h"
  13:main.c        **** 
  14:main.c        **** void configSystem();
  15:main.c        **** 
  16:main.c        **** int main(void)
  17:main.c        **** {
  28              		.loc 1 17 0
  29              		.cfi_startproc
  30              		@ Volatile: function does not return.
  31              		@ args = 0, pretend = 0, frame = 0
  32              		@ frame_needed = 0, uses_anonymous_args = 0
  33              		@ link register save eliminated.
  18:main.c        ****     CyGlobalIntEnable; /* Enable global interrupts. */
  34              		.loc 1 18 0
  35              		.syntax divided
  36              	@ 18 "main.c" 1
  37 0000 62B6     		CPSIE   i
  38              	@ 0 "" 2
  39              		.thumb
ARM GAS  C:\Users\NGUYEN~1\AppData\Local\Temp\ccN83qSe.s 			page 2


  40              		.syntax unified
  41              	.L2:
  42 0002 FEE7     		b	.L2
  43              		.cfi_endproc
  44              	.LFE32:
  45              		.size	main, .-main
  46              		.section	.text.configSystem,"ax",%progbits
  47              		.align	2
  48              		.global	configSystem
  49              		.code	16
  50              		.thumb_func
  51              		.type	configSystem, %function
  52              	configSystem:
  53              	.LFB33:
  19:main.c        **** 
  20:main.c        ****     /* Place your initialization/startup code here (e.g. MyInst_Start()) */
  21:main.c        ****     configSystem();
  22:main.c        ****     
  23:main.c        **** 
  24:main.c        ****     for(;;)
  25:main.c        ****     {
  26:main.c        ****         /* Place your application code here. */
  27:main.c        ****     }
  28:main.c        **** }
  29:main.c        **** 
  30:main.c        **** void configSystem()
  31:main.c        **** {
  54              		.loc 1 31 0
  55              		.cfi_startproc
  56              		@ args = 0, pretend = 0, frame = 0
  57              		@ frame_needed = 0, uses_anonymous_args = 0
  58              		@ link register save eliminated.
  32:main.c        ****     //uartUser
  33:main.c        **** }
  59              		.loc 1 33 0
  60              		@ sp needed
  61 0000 7047     		bx	lr
  62              		.cfi_endproc
  63              	.LFE33:
  64              		.size	configSystem, .-configSystem
  65 0002 C046     		.section	.text.readADC,"ax",%progbits
  66              		.align	2
  67              		.global	readADC
  68              		.code	16
  69              		.thumb_func
  70              		.type	readADC, %function
  71              	readADC:
  72              	.LFB34:
  34:main.c        **** 
  35:main.c        **** int readADC()
  36:main.c        **** {
  73              		.loc 1 36 0
  74              		.cfi_startproc
  75              		@ args = 0, pretend = 0, frame = 0
  76              		@ frame_needed = 0, uses_anonymous_args = 0
  77              		@ link register save eliminated.
  37:main.c        ****     
ARM GAS  C:\Users\NGUYEN~1\AppData\Local\Temp\ccN83qSe.s 			page 3


  38:main.c        **** }
  78              		.loc 1 38 0
  79              		@ sp needed
  80 0000 7047     		bx	lr
  81              		.cfi_endproc
  82              	.LFE34:
  83              		.size	readADC, .-readADC
  84 0002 C046     		.section	.text.transmitToPC,"ax",%progbits
  85              		.align	2
  86              		.global	transmitToPC
  87              		.code	16
  88              		.thumb_func
  89              		.type	transmitToPC, %function
  90              	transmitToPC:
  91              	.LFB35:
  39:main.c        **** 
  40:main.c        **** void transmitToPC(int adcData)
  41:main.c        **** {
  92              		.loc 1 41 0
  93              		.cfi_startproc
  94              		@ args = 0, pretend = 0, frame = 0
  95              		@ frame_needed = 0, uses_anonymous_args = 0
  96              		@ link register save eliminated.
  97              	.LVL0:
  42:main.c        ****     
  43:main.c        **** }
  98              		.loc 1 43 0
  99              		@ sp needed
 100 0000 7047     		bx	lr
 101              		.cfi_endproc
 102              	.LFE35:
 103              		.size	transmitToPC, .-transmitToPC
 104 0002 C046     		.text
 105              	.Letext0: