ARM GAS  C:\Users\NGUYEN~1\AppData\Local\Temp\ccyP8svZ.s 			page 1


   1              		.syntax unified
   2              		.cpu cortex-m0
   3              		.fpu softvfp
   4              		.eabi_attribute 20, 1
   5              		.eabi_attribute 21, 1
   6              		.eabi_attribute 23, 3
   7              		.eabi_attribute 24, 1
   8              		.eabi_attribute 25, 1
   9              		.eabi_attribute 26, 1
  10              		.eabi_attribute 30, 1
  11              		.eabi_attribute 34, 0
  12              		.eabi_attribute 18, 4
  13              		.thumb
  14              		.syntax unified
  15              		.file	"applicationUart.c"
  16              		.text
  17              	.Ltext0:
  18              		.cfi_sections	.debug_frame
  19              		.section	.text.printNumber,"ax",%progbits
  20              		.align	2
  21              		.global	printNumber
  22              		.code	16
  23              		.thumb_func
  24              		.type	printNumber, %function
  25              	printNumber:
  26              	.LFB33:
  27              		.file 1 "applicationUart.c"
   1:applicationUart.c **** /* ========================================
   2:applicationUart.c ****  *
   3:applicationUart.c ****  * Copyright YOUR COMPANY, THE YEAR
   4:applicationUart.c ****  * All Rights Reserved
   5:applicationUart.c ****  * UNPUBLISHED, LICENSED SOFTWARE.
   6:applicationUart.c ****  *
   7:applicationUart.c ****  * CONFIDENTIAL AND PROPRIETARY INFORMATION
   8:applicationUart.c ****  * WHICH IS THE PROPERTY OF your company.
   9:applicationUart.c ****  *
  10:applicationUart.c ****  * ========================================
  11:applicationUart.c **** */
  12:applicationUart.c **** #include "applicationUart.h"
  13:applicationUart.c **** 
  14:applicationUart.c **** void printNumber(int number)
  15:applicationUart.c **** {
  28              		.loc 1 15 0
  29              		.cfi_startproc
  30              		@ args = 0, pretend = 0, frame = 32
  31              		@ frame_needed = 0, uses_anonymous_args = 0
  32              	.LVL0:
  33 0000 00B5     		push	{lr}
  34              		.cfi_def_cfa_offset 4
  35              		.cfi_offset 14, -4
  36 0002 89B0     		sub	sp, sp, #36
  37              		.cfi_def_cfa_offset 40
  38 0004 0200     		movs	r2, r0
  16:applicationUart.c ****     char strings[30];
  17:applicationUart.c ****     
  18:applicationUart.c ****     sprintf(strings, "%d\n", number);
  39              		.loc 1 18 0
ARM GAS  C:\Users\NGUYEN~1\AppData\Local\Temp\ccyP8svZ.s 			page 2


  40 0006 0449     		ldr	r1, .L2
  41 0008 6846     		mov	r0, sp
  42              	.LVL1:
  43 000a FFF7FEFF 		bl	sprintf
  44              	.LVL2:
  19:applicationUart.c ****     
  20:applicationUart.c ****     uart_UartPutString(strings);    
  45              		.loc 1 20 0
  46 000e 6846     		mov	r0, sp
  47 0010 FFF7FEFF 		bl	uart_UartPutString
  48              	.LVL3:
  21:applicationUart.c **** } 
  49              		.loc 1 21 0
  50 0014 09B0     		add	sp, sp, #36
  51              		@ sp needed
  52 0016 00BD     		pop	{pc}
  53              	.L3:
  54              		.align	2
  55              	.L2:
  56 0018 00000000 		.word	.LC0
  57              		.cfi_endproc
  58              	.LFE33:
  59              		.size	printNumber, .-printNumber
  60              		.section	.text.printNumberIncrement,"ax",%progbits
  61              		.align	2
  62              		.global	printNumberIncrement
  63              		.code	16
  64              		.thumb_func
  65              		.type	printNumberIncrement, %function
  66              	printNumberIncrement:
  67              	.LFB34:
  22:applicationUart.c **** 
  23:applicationUart.c **** void printNumberIncrement()
  24:applicationUart.c **** {
  68              		.loc 1 24 0
  69              		.cfi_startproc
  70              		@ args = 0, pretend = 0, frame = 32
  71              		@ frame_needed = 0, uses_anonymous_args = 0
  72 0000 00B5     		push	{lr}
  73              		.cfi_def_cfa_offset 4
  74              		.cfi_offset 14, -4
  75 0002 89B0     		sub	sp, sp, #36
  76              		.cfi_def_cfa_offset 40
  25:applicationUart.c ****     char strings[30];
  26:applicationUart.c ****     static int number = 10;
  27:applicationUart.c ****     
  28:applicationUart.c ****     number++;
  77              		.loc 1 28 0
  78 0004 094A     		ldr	r2, .L6
  79 0006 1368     		ldr	r3, [r2]
  80 0008 0133     		adds	r3, r3, #1
  81 000a 1360     		str	r3, [r2]
  29:applicationUart.c ****     if(number > 15)
  82              		.loc 1 29 0
  83 000c 0F2B     		cmp	r3, #15
  84 000e 02DD     		ble	.L5
  30:applicationUart.c ****         number = 5;   
ARM GAS  C:\Users\NGUYEN~1\AppData\Local\Temp\ccyP8svZ.s 			page 3


  85              		.loc 1 30 0
  86 0010 0522     		movs	r2, #5
  87 0012 064B     		ldr	r3, .L6
  88 0014 1A60     		str	r2, [r3]
  89              	.L5:
  31:applicationUart.c ****     
  32:applicationUart.c ****     sprintf(strings, "%d\n", number);
  90              		.loc 1 32 0
  91 0016 054B     		ldr	r3, .L6
  92 0018 1A68     		ldr	r2, [r3]
  93 001a 0549     		ldr	r1, .L6+4
  94 001c 6846     		mov	r0, sp
  95 001e FFF7FEFF 		bl	sprintf
  96              	.LVL4:
  33:applicationUart.c ****     
  34:applicationUart.c ****     uart_UartPutString(strings); 
  97              		.loc 1 34 0
  98 0022 6846     		mov	r0, sp
  99 0024 FFF7FEFF 		bl	uart_UartPutString
 100              	.LVL5:
  35:applicationUart.c **** }
 101              		.loc 1 35 0
 102 0028 09B0     		add	sp, sp, #36
 103              		@ sp needed
 104 002a 00BD     		pop	{pc}
 105              	.L7:
 106              		.align	2
 107              	.L6:
 108 002c 00000000 		.word	.LANCHOR0
 109 0030 00000000 		.word	.LC0
 110              		.cfi_endproc
 111              	.LFE34:
 112              		.size	printNumberIncrement, .-printNumberIncrement
 113              		.section	.text.receive_After_Transmit_Char_Type,"ax",%progbits
 114              		.align	2
 115              		.global	receive_After_Transmit_Char_Type
 116              		.code	16
 117              		.thumb_func
 118              		.type	receive_After_Transmit_Char_Type, %function
 119              	receive_After_Transmit_Char_Type:
 120              	.LFB35:
  36:applicationUart.c **** 
  37:applicationUart.c **** void receive_After_Transmit_Char_Type()
  38:applicationUart.c **** {   
 121              		.loc 1 38 0
 122              		.cfi_startproc
 123              		@ args = 0, pretend = 0, frame = 32
 124              		@ frame_needed = 0, uses_anonymous_args = 0
 125 0000 10B5     		push	{r4, lr}
 126              		.cfi_def_cfa_offset 8
 127              		.cfi_offset 4, -8
 128              		.cfi_offset 14, -4
 129 0002 88B0     		sub	sp, sp, #32
 130              		.cfi_def_cfa_offset 40
  39:applicationUart.c ****     static int i=0;
  40:applicationUart.c ****     char txData[] = "\nPlear enter a character: ";
 131              		.loc 1 40 0
ARM GAS  C:\Users\NGUYEN~1\AppData\Local\Temp\ccyP8svZ.s 			page 4


 132 0004 01A9     		add	r1, sp, #4
 133 0006 1248     		ldr	r0, .L12
 134 0008 0B00     		movs	r3, r1
 135 000a 0200     		movs	r2, r0
 136 000c 13CA     		ldmia	r2!, {r0, r1, r4}
 137 000e 13C3     		stmia	r3!, {r0, r1, r4}
 138 0010 13CA     		ldmia	r2!, {r0, r1, r4}
 139 0012 13C3     		stmia	r3!, {r0, r1, r4}
 140 0014 1188     		ldrh	r1, [r2]
 141 0016 1980     		strh	r1, [r3]
 142 0018 9278     		ldrb	r2, [r2, #2]
 143 001a 9A70     		strb	r2, [r3, #2]
  41:applicationUart.c ****     
  42:applicationUart.c ****     if( i==0 ) 
 144              		.loc 1 42 0
 145 001c 0D4B     		ldr	r3, .L12+4
 146 001e 1B68     		ldr	r3, [r3]
 147 0020 002B     		cmp	r3, #0
 148 0022 02D1     		bne	.L9
  43:applicationUart.c ****         uart_UartPutString( txData );
 149              		.loc 1 43 0
 150 0024 01A8     		add	r0, sp, #4
 151 0026 FFF7FEFF 		bl	uart_UartPutString
 152              	.LVL6:
 153              	.L9:
  44:applicationUart.c ****     
  45:applicationUart.c ****     uint32 rxData;     
  46:applicationUart.c ****        
  47:applicationUart.c ****     rxData = uart_UartGetChar();    // store received characters in temporary variable     
 154              		.loc 1 47 0
 155 002a FFF7FEFF 		bl	uart_UartGetChar
 156              	.LVL7:
 157 002e 041E     		subs	r4, r0, #0
 158              	.LVL8:
  48:applicationUart.c ****    
  49:applicationUart.c ****    if( rxData )  // make sure data is non-zero
 159              		.loc 1 49 0
 160 0030 09D0     		beq	.L10
  50:applicationUart.c ****     {        
  51:applicationUart.c ****         uart_UartPutString("\nResult: ");
 161              		.loc 1 51 0
 162 0032 0948     		ldr	r0, .L12+8
 163              	.LVL9:
 164 0034 FFF7FEFF 		bl	uart_UartPutString
 165              	.LVL10:
  52:applicationUart.c ****         uart_UartPutChar( rxData ); // echo characters in terminal window 
 166              		.loc 1 52 0
 167 0038 2000     		movs	r0, r4
 168 003a FFF7FEFF 		bl	uart_SpiUartWriteTxData
 169              	.LVL11:
  53:applicationUart.c ****         i=0;
 170              		.loc 1 53 0
 171 003e 0022     		movs	r2, #0
 172 0040 044B     		ldr	r3, .L12+4
 173 0042 1A60     		str	r2, [r3]
 174 0044 02E0     		b	.L8
 175              	.LVL12:
ARM GAS  C:\Users\NGUYEN~1\AppData\Local\Temp\ccyP8svZ.s 			page 5


 176              	.L10:
  54:applicationUart.c ****         return;
  55:applicationUart.c ****     }
  56:applicationUart.c ****     
  57:applicationUart.c ****     i=1;    
 177              		.loc 1 57 0
 178 0046 0122     		movs	r2, #1
 179 0048 024B     		ldr	r3, .L12+4
 180 004a 1A60     		str	r2, [r3]
 181              	.LVL13:
 182              	.L8:
  58:applicationUart.c ****         
  59:applicationUart.c ****     // Handle received characters
  60:applicationUart.c **** }
 183              		.loc 1 60 0
 184 004c 08B0     		add	sp, sp, #32
 185              		@ sp needed
 186              	.LVL14:
 187 004e 10BD     		pop	{r4, pc}
 188              	.L13:
 189              		.align	2
 190              	.L12:
 191 0050 10000000 		.word	.LC4
 192 0054 00000000 		.word	.LANCHOR1
 193 0058 04000000 		.word	.LC7
 194              		.cfi_endproc
 195              	.LFE35:
 196              		.size	receive_After_Transmit_Char_Type, .-receive_After_Transmit_Char_Type
 197              		.section	.text.receive_After_Transmit_String,"ax",%progbits
 198              		.align	2
 199              		.global	receive_After_Transmit_String
 200              		.code	16
 201              		.thumb_func
 202              		.type	receive_After_Transmit_String, %function
 203              	receive_After_Transmit_String:
 204              	.LFB36:
  61:applicationUart.c **** 
  62:applicationUart.c **** 
  63:applicationUart.c **** void receive_After_Transmit_String()
  64:applicationUart.c **** {
 205              		.loc 1 64 0
 206              		.cfi_startproc
 207              		@ args = 0, pretend = 0, frame = 48
 208              		@ frame_needed = 0, uses_anonymous_args = 0
 209 0000 30B5     		push	{r4, r5, lr}
 210              		.cfi_def_cfa_offset 12
 211              		.cfi_offset 4, -12
 212              		.cfi_offset 5, -8
 213              		.cfi_offset 14, -4
 214 0002 8DB0     		sub	sp, sp, #52
 215              		.cfi_def_cfa_offset 64
  65:applicationUart.c ****     static int i=0; 
  66:applicationUart.c ****     int j;    
  67:applicationUart.c ****     char txData[] = "\nPlear enter a string: ";
 216              		.loc 1 67 0
 217 0004 06A8     		add	r0, sp, #24
 218 0006 0B49     		ldr	r1, .L16
ARM GAS  C:\Users\NGUYEN~1\AppData\Local\Temp\ccyP8svZ.s 			page 6


 219 0008 0300     		movs	r3, r0
 220 000a 0A00     		movs	r2, r1
 221 000c 32CA     		ldmia	r2!, {r1, r4, r5}
 222 000e 32C3     		stmia	r3!, {r1, r4, r5}
 223 0010 32CA     		ldmia	r2!, {r1, r4, r5}
 224 0012 32C3     		stmia	r3!, {r1, r4, r5}
  68:applicationUart.c ****     char txDataString[20];
  69:applicationUart.c ****     uint32 txDataReceive;
  70:applicationUart.c ****     
  71:applicationUart.c ****     if(i==0)
  72:applicationUart.c ****         uart_UartPutString( txData );
 225              		.loc 1 72 0
 226 0014 FFF7FEFF 		bl	uart_UartPutString
 227              	.LVL15:
  73:applicationUart.c ****         
  74:applicationUart.c ****     txDataReceive = uart_UartGetChar();  
 228              		.loc 1 74 0
 229 0018 FFF7FEFF 		bl	uart_UartGetChar
 230              	.LVL16:
  75:applicationUart.c ****     
  76:applicationUart.c ****     if(txDataReceive)
 231              		.loc 1 76 0
 232 001c 0028     		cmp	r0, #0
 233 001e 07D0     		beq	.L14
  77:applicationUart.c ****     {
  78:applicationUart.c ****         sprintf(txDataString, "%lu", txDataReceive);
 234              		.loc 1 78 0
 235 0020 0200     		movs	r2, r0
 236 0022 0549     		ldr	r1, .L16+4
 237 0024 01A8     		add	r0, sp, #4
 238              	.LVL17:
 239 0026 FFF7FEFF 		bl	sprintf
 240              	.LVL18:
  79:applicationUart.c ****         
  80:applicationUart.c ****         uart_UartPutString(txDataString);   
 241              		.loc 1 80 0
 242 002a 01A8     		add	r0, sp, #4
 243 002c FFF7FEFF 		bl	uart_UartPutString
 244              	.LVL19:
 245              	.L14:
  81:applicationUart.c ****     }
  82:applicationUart.c ****     
  83:applicationUart.c **** }
 246              		.loc 1 83 0
 247 0030 0DB0     		add	sp, sp, #52
 248              		@ sp needed
 249 0032 30BD     		pop	{r4, r5, pc}
 250              	.L17:
 251              		.align	2
 252              	.L16:
 253 0034 30000000 		.word	.LC9
 254 0038 2C000000 		.word	.LC11
 255              		.cfi_endproc
 256              	.LFE36:
 257              		.size	receive_After_Transmit_String, .-receive_After_Transmit_String
 258              		.data
 259              		.align	2
ARM GAS  C:\Users\NGUYEN~1\AppData\Local\Temp\ccyP8svZ.s 			page 7


 260              		.set	.LANCHOR0,. + 0
 261              		.type	number.6036, %object
 262              		.size	number.6036, 4
 263              	number.6036:
 264 0000 0A000000 		.word	10
 265              		.section	.rodata.str1.4,"aMS",%progbits,1
 266              		.align	2
 267              	.LC0:
 268 0000 25640A00 		.ascii	"%d\012\000"
 269              	.LC7:
 270 0004 0A526573 		.ascii	"\012Result: \000"
 270      756C743A 
 270      2000
 271 000e 0000     		.space	2
 272              	.LC4:
 273 0010 0A506C65 		.ascii	"\012Plear enter a character: \000"
 273      61722065 
 273      6E746572 
 273      20612063 
 273      68617261 
 274 002b 00       		.space	1
 275              	.LC11:
 276 002c 256C7500 		.ascii	"%lu\000"
 277              	.LC9:
 278 0030 0A506C65 		.ascii	"\012Plear enter a string: \000"
 278      61722065 
 278      6E746572 
 278      20612073 
 278      7472696E 
 279              		.bss
 280              		.align	2
 281              		.set	.LANCHOR1,. + 0
 282              		.type	i.6039, %object
 283              		.size	i.6039, 4
 284              	i.6039:
 285 0000 00000000 		.space	4
 286              		.text
 287              	.Letext0:
 288              		.file 2 "c:\\program files (x86)\\cypress\\psoc creator\\4.4\\psoc creator\\import\\gnu\\arm\\5.4.
 289              		.file 3 "Generated_Source\\PSoC4/uart_SPI_UART.h"
 290              		.file 4 "Generated_Source\\PSoC4/cytypes.h"