ARM GAS  C:\Users\NGUYEN~1\AppData\Local\Temp\cctegFfF.s 			page 1


   1              		.syntax unified
   2              		.cpu cortex-m0
   3              		.fpu softvfp
   4              		.eabi_attribute 20, 1
   5              		.eabi_attribute 21, 1
   6              		.eabi_attribute 23, 3
   7              		.eabi_attribute 24, 1
   8              		.eabi_attribute 25, 1
   9              		.eabi_attribute 26, 1
  10              		.eabi_attribute 30, 1
  11              		.eabi_attribute 34, 0
  12              		.eabi_attribute 18, 4
  13              		.thumb
  14              		.syntax unified
  15              		.file	"main.c"
  16              		.text
  17              	.Ltext0:
  18              		.cfi_sections	.debug_frame
  19              		.section	.text.configSystem,"ax",%progbits
  20              		.align	2
  21              		.global	configSystem
  22              		.code	16
  23              		.thumb_func
  24              		.type	configSystem, %function
  25              	configSystem:
  26              	.LFB34:
  27              		.file 1 "main.c"
   1:main.c        **** /* ========================================
   2:main.c        ****  *
   3:main.c        ****  * Copyright YOUR COMPANY, THE YEAR
   4:main.c        ****  * All Rights Reserved
   5:main.c        ****  * UNPUBLISHED, LICENSED SOFTWARE.
   6:main.c        ****  *
   7:main.c        ****  * CONFIDENTIAL AND PROPRIETARY INFORMATION
   8:main.c        ****  * WHICH IS THE PROPERTY OF your company.
   9:main.c        ****  *
  10:main.c        ****  * ========================================
  11:main.c        **** */
  12:main.c        **** #include "main.h"
  13:main.c        **** 
  14:main.c        **** int main(void)
  15:main.c        **** {
  16:main.c        ****     CyGlobalIntEnable; /* Enable global interrupts. */
  17:main.c        **** 
  18:main.c        ****     /* Place your initialization/startup code here (e.g. MyInst_Start()) */
  19:main.c        **** 
  20:main.c        ****     configSystem();
  21:main.c        ****         
  22:main.c        ****     for(;;)
  23:main.c        ****     {
  24:main.c        ****         /* Place your application code here. */
  25:main.c        ****         printNumberIncrement();
  26:main.c        ****         CyDelay(1000);
  27:main.c        ****     }
  28:main.c        **** }
  29:main.c        **** 
  30:main.c        **** void configSystem()
ARM GAS  C:\Users\NGUYEN~1\AppData\Local\Temp\cctegFfF.s 			page 2


  31:main.c        **** {
  28              		.loc 1 31 0
  29              		.cfi_startproc
  30              		@ args = 0, pretend = 0, frame = 0
  31              		@ frame_needed = 0, uses_anonymous_args = 0
  32 0000 10B5     		push	{r4, lr}
  33              		.cfi_def_cfa_offset 8
  34              		.cfi_offset 4, -8
  35              		.cfi_offset 14, -4
  32:main.c        ****        uart_Start();
  36              		.loc 1 32 0
  37 0002 FFF7FEFF 		bl	uart_Start
  38              	.LVL0:
  33:main.c        **** }
  39              		.loc 1 33 0
  40              		@ sp needed
  41 0006 10BD     		pop	{r4, pc}
  42              		.cfi_endproc
  43              	.LFE34:
  44              		.size	configSystem, .-configSystem
  45              		.section	.text.main,"ax",%progbits
  46              		.align	2
  47              		.global	main
  48              		.code	16
  49              		.thumb_func
  50              		.type	main, %function
  51              	main:
  52              	.LFB33:
  15:main.c        ****     CyGlobalIntEnable; /* Enable global interrupts. */
  53              		.loc 1 15 0
  54              		.cfi_startproc
  55              		@ Volatile: function does not return.
  56              		@ args = 0, pretend = 0, frame = 0
  57              		@ frame_needed = 0, uses_anonymous_args = 0
  58 0000 10B5     		push	{r4, lr}
  59              		.cfi_def_cfa_offset 8
  60              		.cfi_offset 4, -8
  61              		.cfi_offset 14, -4
  16:main.c        **** 
  62              		.loc 1 16 0
  63              		.syntax divided
  64              	@ 16 "main.c" 1
  65 0002 62B6     		CPSIE   i
  66              	@ 0 "" 2
  20:main.c        ****         
  67              		.loc 1 20 0
  68              		.thumb
  69              		.syntax unified
  70 0004 FFF7FEFF 		bl	configSystem
  71              	.LVL1:
  72              	.L3:
  25:main.c        ****         CyDelay(1000);
  73              		.loc 1 25 0 discriminator 1
  74 0008 FFF7FEFF 		bl	printNumberIncrement
  75              	.LVL2:
  26:main.c        ****     }
  76              		.loc 1 26 0 discriminator 1
ARM GAS  C:\Users\NGUYEN~1\AppData\Local\Temp\cctegFfF.s 			page 3


  77 000c FA20     		movs	r0, #250
  78 000e 8000     		lsls	r0, r0, #2
  79 0010 FFF7FEFF 		bl	CyDelay
  80              	.LVL3:
  81 0014 F8E7     		b	.L3
  82              		.cfi_endproc
  83              	.LFE33:
  84              		.size	main, .-main
  85 0016 C046     		.text
  86              	.Letext0:
  87              		.file 2 "Generated_Source\\PSoC4/uart.h"
  88              		.file 3 "applicationUart.h"
  89              		.file 4 "Generated_Source\\PSoC4/CyLib.h"