ARM GAS  C:\Users\NGUYEN~1\AppData\Local\Temp\cc1N34Le.s 			page 1


   1              		.syntax unified
   2              		.cpu cortex-m0
   3              		.fpu softvfp
   4              		.eabi_attribute 20, 1
   5              		.eabi_attribute 21, 1
   6              		.eabi_attribute 23, 3
   7              		.eabi_attribute 24, 1
   8              		.eabi_attribute 25, 1
   9              		.eabi_attribute 26, 1
  10              		.eabi_attribute 30, 1
  11              		.eabi_attribute 34, 0
  12              		.eabi_attribute 18, 4
  13              		.thumb
  14              		.syntax unified
  15              		.file	"main.c"
  16              		.text
  17              	.Ltext0:
  18              		.cfi_sections	.debug_frame
  19              		.section	.text.configSystem,"ax",%progbits
  20              		.align	2
  21              		.global	configSystem
  22              		.code	16
  23              		.thumb_func
  24              		.type	configSystem, %function
  25              	configSystem:
  26              	.LFB33:
  27              		.file 1 "main.c"
   1:main.c        **** /* ========================================
   2:main.c        ****  *
   3:main.c        ****  * Copyright YOUR COMPANY, THE YEAR
   4:main.c        ****  * All Rights Reserved
   5:main.c        ****  * UNPUBLISHED, LICENSED SOFTWARE.
   6:main.c        ****  *
   7:main.c        ****  * CONFIDENTIAL AND PROPRIETARY INFORMATION
   8:main.c        ****  * WHICH IS THE PROPERTY OF your company.
   9:main.c        ****  *
  10:main.c        ****  * ========================================
  11:main.c        **** */
  12:main.c        **** #include "project.h"
  13:main.c        **** #include "main.h"
  14:main.c        **** 
  15:main.c        **** int main(void)
  16:main.c        **** {
  17:main.c        ****     CyGlobalIntEnable; /* Enable global interrupts. */
  18:main.c        **** 
  19:main.c        ****     configSystem();
  20:main.c        **** 
  21:main.c        ****     for(;;)
  22:main.c        ****     {
  23:main.c        ****         display();
  24:main.c        ****     }
  25:main.c        **** }
  26:main.c        **** 
  27:main.c        **** void configSystem()
  28:main.c        **** {
  28              		.loc 1 28 0
  29              		.cfi_startproc
ARM GAS  C:\Users\NGUYEN~1\AppData\Local\Temp\cc1N34Le.s 			page 2


  30              		@ args = 0, pretend = 0, frame = 0
  31              		@ frame_needed = 0, uses_anonymous_args = 0
  32 0000 10B5     		push	{r4, lr}
  33              		.cfi_def_cfa_offset 8
  34              		.cfi_offset 4, -8
  35              		.cfi_offset 14, -4
  29:main.c        ****     lcd_Start();    
  36              		.loc 1 29 0
  37 0002 FFF7FEFF 		bl	lcd_Start
  38              	.LVL0:
  30:main.c        ****     
  31:main.c        ****     lcd_Position(0u,0u);
  39              		.loc 1 31 0
  40 0006 0021     		movs	r1, #0
  41 0008 0020     		movs	r0, #0
  42 000a FFF7FEFF 		bl	lcd_Position
  43              	.LVL1:
  32:main.c        ****     lcd_PrintString("Hello world.");
  44              		.loc 1 32 0
  45 000e 0848     		ldr	r0, .L2
  46 0010 FFF7FEFF 		bl	lcd_PrintString
  47              	.LVL2:
  33:main.c        ****     lcd_Position(1u,0u);
  48              		.loc 1 33 0
  49 0014 0021     		movs	r1, #0
  50 0016 0120     		movs	r0, #1
  51 0018 FFF7FEFF 		bl	lcd_Position
  52              	.LVL3:
  34:main.c        ****     lcd_PrintString("I am Dat.");
  53              		.loc 1 34 0
  54 001c 0548     		ldr	r0, .L2+4
  55 001e FFF7FEFF 		bl	lcd_PrintString
  56              	.LVL4:
  35:main.c        ****     CyDelay(10000);
  57              		.loc 1 35 0
  58 0022 0548     		ldr	r0, .L2+8
  59 0024 FFF7FEFF 		bl	CyDelay
  60              	.LVL5:
  36:main.c        ****     lcd_ClearDisplay();
  61              		.loc 1 36 0
  62 0028 0120     		movs	r0, #1
  63 002a FFF7FEFF 		bl	lcd_WriteControl
  64              	.LVL6:
  37:main.c        **** }
  65              		.loc 1 37 0
  66              		@ sp needed
  67 002e 10BD     		pop	{r4, pc}
  68              	.L3:
  69              		.align	2
  70              	.L2:
  71 0030 00000000 		.word	.LC0
  72 0034 10000000 		.word	.LC2
  73 0038 10270000 		.word	10000
  74              		.cfi_endproc
  75              	.LFE33:
  76              		.size	configSystem, .-configSystem
  77              		.section	.text.display,"ax",%progbits
ARM GAS  C:\Users\NGUYEN~1\AppData\Local\Temp\cc1N34Le.s 			page 3


  78              		.align	2
  79              		.global	display
  80              		.code	16
  81              		.thumb_func
  82              		.type	display, %function
  83              	display:
  84              	.LFB34:
  38:main.c        **** 
  39:main.c        **** void display()
  40:main.c        **** {
  85              		.loc 1 40 0
  86              		.cfi_startproc
  87              		@ args = 0, pretend = 0, frame = 0
  88              		@ frame_needed = 0, uses_anonymous_args = 0
  89 0000 10B5     		push	{r4, lr}
  90              		.cfi_def_cfa_offset 8
  91              		.cfi_offset 4, -8
  92              		.cfi_offset 14, -4
  41:main.c        ****     lcd_Position(0u,0u);
  93              		.loc 1 41 0
  94 0002 0021     		movs	r1, #0
  95 0004 0020     		movs	r0, #0
  96 0006 FFF7FEFF 		bl	lcd_Position
  97              	.LVL7:
  42:main.c        ****     lcd_PrintString("lcd 16x2");
  98              		.loc 1 42 0
  99 000a 0248     		ldr	r0, .L5
 100 000c FFF7FEFF 		bl	lcd_PrintString
 101              	.LVL8:
  43:main.c        **** }
 102              		.loc 1 43 0
 103              		@ sp needed
 104 0010 10BD     		pop	{r4, pc}
 105              	.L6:
 106 0012 C046     		.align	2
 107              	.L5:
 108 0014 1C000000 		.word	.LC4
 109              		.cfi_endproc
 110              	.LFE34:
 111              		.size	display, .-display
 112              		.section	.text.main,"ax",%progbits
 113              		.align	2
 114              		.global	main
 115              		.code	16
 116              		.thumb_func
 117              		.type	main, %function
 118              	main:
 119              	.LFB32:
  16:main.c        ****     CyGlobalIntEnable; /* Enable global interrupts. */
 120              		.loc 1 16 0
 121              		.cfi_startproc
 122              		@ Volatile: function does not return.
 123              		@ args = 0, pretend = 0, frame = 0
 124              		@ frame_needed = 0, uses_anonymous_args = 0
 125 0000 10B5     		push	{r4, lr}
 126              		.cfi_def_cfa_offset 8
 127              		.cfi_offset 4, -8
ARM GAS  C:\Users\NGUYEN~1\AppData\Local\Temp\cc1N34Le.s 			page 4


 128              		.cfi_offset 14, -4
  17:main.c        **** 
 129              		.loc 1 17 0
 130              		.syntax divided
 131              	@ 17 "main.c" 1
 132 0002 62B6     		CPSIE   i
 133              	@ 0 "" 2
  19:main.c        **** 
 134              		.loc 1 19 0
 135              		.thumb
 136              		.syntax unified
 137 0004 FFF7FEFF 		bl	configSystem
 138              	.LVL9:
 139              	.L8:
  23:main.c        ****     }
 140              		.loc 1 23 0 discriminator 1
 141 0008 FFF7FEFF 		bl	display
 142              	.LVL10:
 143 000c FCE7     		b	.L8
 144              		.cfi_endproc
 145              	.LFE32:
 146              		.size	main, .-main
 147 000e C046     		.section	.rodata.str1.4,"aMS",%progbits,1
 148              		.align	2
 149              	.LC0:
 150 0000 48656C6C 		.ascii	"Hello world.\000"
 150      6F20776F 
 150      726C642E 
 150      00
 151 000d 000000   		.space	3
 152              	.LC2:
 153 0010 4920616D 		.ascii	"I am Dat.\000"
 153      20446174 
 153      2E00
 154 001a 0000     		.space	2
 155              	.LC4:
 156 001c 6C636420 		.ascii	"lcd 16x2\000"
 156      31367832 
 156      00
 157              		.text
 158              	.Letext0:
 159              		.file 2 "Generated_Source\\PSoC4/lcd.h"
 160              		.file 3 "Generated_Source\\PSoC4/CyLib.h"