ARM GAS  C:\Users\NGUYEN~1\AppData\Local\Temp\ccHWEAvc.s 			page 1


   1              		.syntax unified
   2              		.cpu cortex-m0
   3              		.fpu softvfp
   4              		.eabi_attribute 20, 1
   5              		.eabi_attribute 21, 1
   6              		.eabi_attribute 23, 3
   7              		.eabi_attribute 24, 1
   8              		.eabi_attribute 25, 1
   9              		.eabi_attribute 26, 1
  10              		.eabi_attribute 30, 1
  11              		.eabi_attribute 34, 0
  12              		.eabi_attribute 18, 4
  13              		.thumb
  14              		.syntax unified
  15              		.file	"main.c"
  16              		.text
  17              	.Ltext0:
  18              		.cfi_sections	.debug_frame
  19              		.section	.text.led_glow,"ax",%progbits
  20              		.align	2
  21              		.global	led_glow
  22              		.code	16
  23              		.thumb_func
  24              		.type	led_glow, %function
  25              	led_glow:
  26              	.LFB33:
  27              		.file 1 "main.c"
   1:main.c        **** /* ========================================
   2:main.c        ****  *
   3:main.c        ****  * Copyright YOUR COMPANY, THE YEAR
   4:main.c        ****  * All Rights Reserved
   5:main.c        ****  * UNPUBLISHED, LICENSED SOFTWARE.
   6:main.c        ****  *
   7:main.c        ****  * CONFIDENTIAL AND PROPRIETARY INFORMATION
   8:main.c        ****  * WHICH IS THE PROPERTY OF your company.
   9:main.c        ****  *
  10:main.c        ****  * ========================================
  11:main.c        **** */
  12:main.c        **** #include "project.h"
  13:main.c        **** 
  14:main.c        **** void led_glow(uint8 status_1);
  15:main.c        **** 
  16:main.c        **** int main(void)
  17:main.c        **** {
  18:main.c        ****     CyGlobalIntEnable; /* Enable global interrupts. */
  19:main.c        **** 
  20:main.c        ****     /* Place your initialization/startup code here (e.g. MyInst_Start()) */
  21:main.c        ****     
  22:main.c        ****     gnd_Write(0);
  23:main.c        ****     for(;;)
  24:main.c        ****     {
  25:main.c        ****         /* Place your application code here. */
  26:main.c        ****         
  27:main.c        ****         
  28:main.c        ****         uint8 result = Pin_SW2_Read();
  29:main.c        ****         
  30:main.c        ****         led_glow(result);
ARM GAS  C:\Users\NGUYEN~1\AppData\Local\Temp\ccHWEAvc.s 			page 2


  31:main.c        ****         
  32:main.c        ****         /*if(result)
  33:main.c        ****             led_blue_Write(0); 
  34:main.c        ****         else            
  35:main.c        ****             led_blue_Write(1);  */
  36:main.c        ****         
  37:main.c        ****     }
  38:main.c        **** }
  39:main.c        **** 
  40:main.c        **** /* press button,led will glow */
  41:main.c        **** void led_glow(uint8 status_1)
  42:main.c        **** {
  28              		.loc 1 42 0
  29              		.cfi_startproc
  30              		@ args = 0, pretend = 0, frame = 0
  31              		@ frame_needed = 0, uses_anonymous_args = 0
  32              	.LVL0:
  33 0000 10B5     		push	{r4, lr}
  34              		.cfi_def_cfa_offset 8
  35              		.cfi_offset 4, -8
  36              		.cfi_offset 14, -4
  43:main.c        ****        status_1 == 0 ?  led_blue_Write(0) : led_blue_Write(1) ;
  37              		.loc 1 43 0
  38 0002 0028     		cmp	r0, #0
  39 0004 02D1     		bne	.L2
  40              		.loc 1 43 0 is_stmt 0 discriminator 1
  41 0006 FFF7FEFF 		bl	led_blue_Write
  42              	.LVL1:
  43 000a 02E0     		b	.L1
  44              	.LVL2:
  45              	.L2:
  46              		.loc 1 43 0 discriminator 2
  47 000c 0120     		movs	r0, #1
  48              	.LVL3:
  49 000e FFF7FEFF 		bl	led_blue_Write
  50              	.LVL4:
  51              	.L1:
  44:main.c        **** }
  52              		.loc 1 44 0 is_stmt 1
  53              		@ sp needed
  54 0012 10BD     		pop	{r4, pc}
  55              		.cfi_endproc
  56              	.LFE33:
  57              		.size	led_glow, .-led_glow
  58              		.section	.text.main,"ax",%progbits
  59              		.align	2
  60              		.global	main
  61              		.code	16
  62              		.thumb_func
  63              		.type	main, %function
  64              	main:
  65              	.LFB32:
  17:main.c        ****     CyGlobalIntEnable; /* Enable global interrupts. */
  66              		.loc 1 17 0
  67              		.cfi_startproc
  68              		@ args = 0, pretend = 0, frame = 0
  69              		@ frame_needed = 0, uses_anonymous_args = 0
ARM GAS  C:\Users\NGUYEN~1\AppData\Local\Temp\ccHWEAvc.s 			page 3


  70 0000 10B5     		push	{r4, lr}
  71              		.cfi_def_cfa_offset 8
  72              		.cfi_offset 4, -8
  73              		.cfi_offset 14, -4
  18:main.c        **** 
  74              		.loc 1 18 0
  75              		.syntax divided
  76              	@ 18 "main.c" 1
  77 0002 62B6     		CPSIE   i
  78              	@ 0 "" 2
  22:main.c        ****     for(;;)
  79              		.loc 1 22 0
  80              		.thumb
  81              		.syntax unified
  82 0004 0020     		movs	r0, #0
  83 0006 FFF7FEFF 		bl	gnd_Write
  84              	.LVL5:
  85              	.L5:
  86              	.LBB2:
  28:main.c        ****         
  87              		.loc 1 28 0 discriminator 1
  88 000a FFF7FEFF 		bl	Pin_SW2_Read
  89              	.LVL6:
  30:main.c        ****         
  90              		.loc 1 30 0 discriminator 1
  91 000e FFF7FEFF 		bl	led_glow
  92              	.LVL7:
  93 0012 FAE7     		b	.L5
  94              	.LBE2:
  95              		.cfi_endproc
  96              	.LFE32:
  97              		.size	main, .-main
  98              		.text
  99              	.Letext0:
 100              		.file 2 "Generated_Source\\PSoC4/led_blue.h"
 101              		.file 3 "Generated_Source\\PSoC4/Pin_SW2.h"
 102              		.file 4 "Generated_Source\\PSoC4/gnd.h"
 103              		.file 5 "Generated_Source\\PSoC4/cytypes.h"