ARM GAS  C:\Users\NGUYEN~1\AppData\Local\Temp\ccCvhWbK.s 			page 1


   1              		.syntax unified
   2              		.cpu cortex-m0
   3              		.fpu softvfp
   4              		.eabi_attribute 20, 1
   5              		.eabi_attribute 21, 1
   6              		.eabi_attribute 23, 3
   7              		.eabi_attribute 24, 1
   8              		.eabi_attribute 25, 1
   9              		.eabi_attribute 26, 1
  10              		.eabi_attribute 30, 1
  11              		.eabi_attribute 34, 0
  12              		.eabi_attribute 18, 4
  13              		.thumb
  14              		.syntax unified
  15              		.file	"adcUser.c"
  16              		.text
  17              	.Ltext0:
  18              		.cfi_sections	.debug_frame
  19              		.section	.text.adcUser_Init,"ax",%progbits
  20              		.align	2
  21              		.global	adcUser_Init
  22              		.code	16
  23              		.thumb_func
  24              		.type	adcUser_Init, %function
  25              	adcUser_Init:
  26              	.LFB1:
  27              		.file 1 "Generated_Source\\PSoC4\\adcUser.c"
   1:Generated_Source\PSoC4/adcUser.c **** /*******************************************************************************
   2:Generated_Source\PSoC4/adcUser.c **** * File Name: adcUser.c
   3:Generated_Source\PSoC4/adcUser.c **** * Version 2.50
   4:Generated_Source\PSoC4/adcUser.c **** *
   5:Generated_Source\PSoC4/adcUser.c **** * Description:
   6:Generated_Source\PSoC4/adcUser.c **** *  This file provides the source code to the API for the Sequencing Successive
   7:Generated_Source\PSoC4/adcUser.c **** *  Approximation ADC Component Component.
   8:Generated_Source\PSoC4/adcUser.c **** *
   9:Generated_Source\PSoC4/adcUser.c **** * Note:
  10:Generated_Source\PSoC4/adcUser.c **** *
  11:Generated_Source\PSoC4/adcUser.c **** ********************************************************************************
  12:Generated_Source\PSoC4/adcUser.c **** * Copyright 2008-2017, Cypress Semiconductor Corporation.  All rights reserved.
  13:Generated_Source\PSoC4/adcUser.c **** * You may use this file only in accordance with the license, terms, conditions,
  14:Generated_Source\PSoC4/adcUser.c **** * disclaimers, and limitations in the end user license agreement accompanying
  15:Generated_Source\PSoC4/adcUser.c **** * the software package with which this file was provided.
  16:Generated_Source\PSoC4/adcUser.c **** *******************************************************************************/
  17:Generated_Source\PSoC4/adcUser.c **** 
  18:Generated_Source\PSoC4/adcUser.c **** #include "adcUser.h"
  19:Generated_Source\PSoC4/adcUser.c **** 
  20:Generated_Source\PSoC4/adcUser.c **** 
  21:Generated_Source\PSoC4/adcUser.c **** /***************************************
  22:Generated_Source\PSoC4/adcUser.c **** * Global data allocation
  23:Generated_Source\PSoC4/adcUser.c **** ***************************************/
  24:Generated_Source\PSoC4/adcUser.c **** uint8 adcUser_initVar = 0u;
  25:Generated_Source\PSoC4/adcUser.c **** volatile int16 adcUser_offset[adcUser_TOTAL_CHANNELS_NUM];
  26:Generated_Source\PSoC4/adcUser.c **** volatile int32 adcUser_countsPer10Volt[adcUser_TOTAL_CHANNELS_NUM];   /* Gain compensation */
  27:Generated_Source\PSoC4/adcUser.c **** 
  28:Generated_Source\PSoC4/adcUser.c **** 
  29:Generated_Source\PSoC4/adcUser.c **** /***************************************
  30:Generated_Source\PSoC4/adcUser.c **** * Local data allocation
ARM GAS  C:\Users\NGUYEN~1\AppData\Local\Temp\ccCvhWbK.s 			page 2


  31:Generated_Source\PSoC4/adcUser.c **** ***************************************/
  32:Generated_Source\PSoC4/adcUser.c **** /* Channels configuration generated by customiser */
  33:Generated_Source\PSoC4/adcUser.c **** static const uint32 CYCODE adcUser_channelsConfig[] = { 0x00000200u };
  34:Generated_Source\PSoC4/adcUser.c **** 
  35:Generated_Source\PSoC4/adcUser.c **** 
  36:Generated_Source\PSoC4/adcUser.c **** /*******************************************************************************
  37:Generated_Source\PSoC4/adcUser.c **** * Function Name: adcUser_Start
  38:Generated_Source\PSoC4/adcUser.c **** ********************************************************************************
  39:Generated_Source\PSoC4/adcUser.c **** *
  40:Generated_Source\PSoC4/adcUser.c **** * Summary:
  41:Generated_Source\PSoC4/adcUser.c **** *  Performs all required initialization for this component
  42:Generated_Source\PSoC4/adcUser.c **** *  and enables the power. The power will be set to the appropriate
  43:Generated_Source\PSoC4/adcUser.c **** *  power based on the clock frequency.
  44:Generated_Source\PSoC4/adcUser.c **** *
  45:Generated_Source\PSoC4/adcUser.c **** * Parameters:
  46:Generated_Source\PSoC4/adcUser.c **** *  None.
  47:Generated_Source\PSoC4/adcUser.c **** *
  48:Generated_Source\PSoC4/adcUser.c **** * Return:
  49:Generated_Source\PSoC4/adcUser.c **** *  None.
  50:Generated_Source\PSoC4/adcUser.c **** *
  51:Generated_Source\PSoC4/adcUser.c **** * Global variables:
  52:Generated_Source\PSoC4/adcUser.c **** *  The adcUser_initVar variable is used to indicate when/if initial
  53:Generated_Source\PSoC4/adcUser.c **** *  configuration of this component has happened. The variable is initialized to
  54:Generated_Source\PSoC4/adcUser.c **** *  zero and set to 1 the first time ADC_Start() is called. This allows for
  55:Generated_Source\PSoC4/adcUser.c **** *  component Re-Start without re-initialization in all subsequent calls to the
  56:Generated_Source\PSoC4/adcUser.c **** *  adcUser_Start() routine.
  57:Generated_Source\PSoC4/adcUser.c **** *  If re-initialization of the component is required the variable should be set
  58:Generated_Source\PSoC4/adcUser.c **** *  to zero before call of adcUser_Start() routine, or the user may call
  59:Generated_Source\PSoC4/adcUser.c **** *  adcUser_Init() and adcUser_Enable() as done in the
  60:Generated_Source\PSoC4/adcUser.c **** *  adcUser_Start() routine.
  61:Generated_Source\PSoC4/adcUser.c **** *
  62:Generated_Source\PSoC4/adcUser.c **** *******************************************************************************/
  63:Generated_Source\PSoC4/adcUser.c **** void adcUser_Start(void)
  64:Generated_Source\PSoC4/adcUser.c **** {
  65:Generated_Source\PSoC4/adcUser.c ****     /* If not Initialized then initialize all required hardware and software */
  66:Generated_Source\PSoC4/adcUser.c ****     if(adcUser_initVar == 0u)
  67:Generated_Source\PSoC4/adcUser.c ****     {
  68:Generated_Source\PSoC4/adcUser.c ****         adcUser_Init();
  69:Generated_Source\PSoC4/adcUser.c ****         adcUser_initVar = 1u;
  70:Generated_Source\PSoC4/adcUser.c ****     }
  71:Generated_Source\PSoC4/adcUser.c ****     adcUser_Enable();
  72:Generated_Source\PSoC4/adcUser.c **** }
  73:Generated_Source\PSoC4/adcUser.c **** 
  74:Generated_Source\PSoC4/adcUser.c **** 
  75:Generated_Source\PSoC4/adcUser.c **** /*******************************************************************************
  76:Generated_Source\PSoC4/adcUser.c **** * Function Name: adcUser_Init
  77:Generated_Source\PSoC4/adcUser.c **** ********************************************************************************
  78:Generated_Source\PSoC4/adcUser.c **** *
  79:Generated_Source\PSoC4/adcUser.c **** * Summary:
  80:Generated_Source\PSoC4/adcUser.c **** *  Initialize component's parameters to the parameters set by user in the
  81:Generated_Source\PSoC4/adcUser.c **** *  customizer of the component placed onto schematic. Usually called in
  82:Generated_Source\PSoC4/adcUser.c **** *  adcUser_Start().
  83:Generated_Source\PSoC4/adcUser.c **** *
  84:Generated_Source\PSoC4/adcUser.c **** * Parameters:
  85:Generated_Source\PSoC4/adcUser.c **** *  None.
  86:Generated_Source\PSoC4/adcUser.c **** *
  87:Generated_Source\PSoC4/adcUser.c **** * Return:
ARM GAS  C:\Users\NGUYEN~1\AppData\Local\Temp\ccCvhWbK.s 			page 3


  88:Generated_Source\PSoC4/adcUser.c **** *  None.
  89:Generated_Source\PSoC4/adcUser.c **** *
  90:Generated_Source\PSoC4/adcUser.c **** * Global variables:
  91:Generated_Source\PSoC4/adcUser.c **** *  The adcUser_offset variable is initialized.
  92:Generated_Source\PSoC4/adcUser.c **** *
  93:Generated_Source\PSoC4/adcUser.c **** *******************************************************************************/
  94:Generated_Source\PSoC4/adcUser.c **** void adcUser_Init(void)
  95:Generated_Source\PSoC4/adcUser.c **** {
  28              		.loc 1 95 0
  29              		.cfi_startproc
  30              		@ args = 0, pretend = 0, frame = 0
  31              		@ frame_needed = 0, uses_anonymous_args = 0
  32 0000 10B5     		push	{r4, lr}
  33              		.cfi_def_cfa_offset 8
  34              		.cfi_offset 4, -8
  35              		.cfi_offset 14, -4
  96:Generated_Source\PSoC4/adcUser.c ****     uint32 chNum;
  97:Generated_Source\PSoC4/adcUser.c ****     uint32 tmpRegVal;
  98:Generated_Source\PSoC4/adcUser.c ****     int32 counts;
  99:Generated_Source\PSoC4/adcUser.c **** 
 100:Generated_Source\PSoC4/adcUser.c ****     #if(adcUser_TOTAL_CHANNELS_NUM > 1u)
 101:Generated_Source\PSoC4/adcUser.c ****         static const uint8 CYCODE adcUser_InputsPlacement[] =
 102:Generated_Source\PSoC4/adcUser.c ****         {
 103:Generated_Source\PSoC4/adcUser.c ****             (uint8)(adcUser_cy_psoc4_sarmux_8__CH_0_PORT << 4u) |
 104:Generated_Source\PSoC4/adcUser.c ****             (uint8)adcUser_cy_psoc4_sarmux_8__CH_0_PIN
 105:Generated_Source\PSoC4/adcUser.c ****             ,(uint8)(adcUser_cy_psoc4_sarmux_8__CH_1_PORT << 4u) |
 106:Generated_Source\PSoC4/adcUser.c ****              (uint8)adcUser_cy_psoc4_sarmux_8__CH_1_PIN
 107:Generated_Source\PSoC4/adcUser.c ****             #if(adcUser_TOTAL_CHANNELS_NUM > 2u)
 108:Generated_Source\PSoC4/adcUser.c ****                 ,(uint8)(adcUser_cy_psoc4_sarmux_8__CH_2_PORT << 4u) |
 109:Generated_Source\PSoC4/adcUser.c ****                  (uint8)adcUser_cy_psoc4_sarmux_8__CH_2_PIN
 110:Generated_Source\PSoC4/adcUser.c ****             #endif /* End adcUser_TOTAL_CHANNELS_NUM > 2u */
 111:Generated_Source\PSoC4/adcUser.c ****             #if(adcUser_TOTAL_CHANNELS_NUM > 3u)
 112:Generated_Source\PSoC4/adcUser.c ****                 ,(uint8)(adcUser_cy_psoc4_sarmux_8__CH_3_PORT << 4u) |
 113:Generated_Source\PSoC4/adcUser.c ****                  (uint8)adcUser_cy_psoc4_sarmux_8__CH_3_PIN
 114:Generated_Source\PSoC4/adcUser.c ****             #endif /* End adcUser_TOTAL_CHANNELS_NUM > 3u */
 115:Generated_Source\PSoC4/adcUser.c ****             #if(adcUser_TOTAL_CHANNELS_NUM > 4u)
 116:Generated_Source\PSoC4/adcUser.c ****                 ,(uint8)(adcUser_cy_psoc4_sarmux_8__CH_4_PORT << 4u) |
 117:Generated_Source\PSoC4/adcUser.c ****                  (uint8)adcUser_cy_psoc4_sarmux_8__CH_4_PIN
 118:Generated_Source\PSoC4/adcUser.c ****             #endif /* End adcUser_TOTAL_CHANNELS_NUM > 4u */
 119:Generated_Source\PSoC4/adcUser.c ****             #if(adcUser_TOTAL_CHANNELS_NUM > 5u)
 120:Generated_Source\PSoC4/adcUser.c ****                 ,(uint8)(adcUser_cy_psoc4_sarmux_8__CH_5_PORT << 4u) |
 121:Generated_Source\PSoC4/adcUser.c ****                  (uint8)adcUser_cy_psoc4_sarmux_8__CH_5_PIN
 122:Generated_Source\PSoC4/adcUser.c ****             #endif /* End adcUser_TOTAL_CHANNELS_NUM > 5u */
 123:Generated_Source\PSoC4/adcUser.c ****             #if(adcUser_TOTAL_CHANNELS_NUM > 6u)
 124:Generated_Source\PSoC4/adcUser.c ****                 ,(uint8)(adcUser_cy_psoc4_sarmux_8__CH_6_PORT << 4u) |
 125:Generated_Source\PSoC4/adcUser.c ****                  (uint8)adcUser_cy_psoc4_sarmux_8__CH_6_PIN
 126:Generated_Source\PSoC4/adcUser.c ****             #endif /* End adcUser_TOTAL_CHANNELS_NUM > 6u */
 127:Generated_Source\PSoC4/adcUser.c ****             #if(adcUser_TOTAL_CHANNELS_NUM > 7u)
 128:Generated_Source\PSoC4/adcUser.c ****                 ,(uint8)(adcUser_cy_psoc4_sarmux_8__CH_7_PORT << 4u) |
 129:Generated_Source\PSoC4/adcUser.c ****                  (uint8)adcUser_cy_psoc4_sarmux_8__CH_7_PIN
 130:Generated_Source\PSoC4/adcUser.c ****             #endif /* End adcUser_TOTAL_CHANNELS_NUM > 7u */
 131:Generated_Source\PSoC4/adcUser.c ****             #if(adcUser_TOTAL_CHANNELS_NUM > 8u)
 132:Generated_Source\PSoC4/adcUser.c ****                 ,(uint8)(adcUser_cy_psoc4_sarmux_8__CH_8_PORT << 4u) |
 133:Generated_Source\PSoC4/adcUser.c ****                  (uint8)adcUser_cy_psoc4_sarmux_8__CH_8_PIN
 134:Generated_Source\PSoC4/adcUser.c ****             #endif /* End adcUser_TOTAL_CHANNELS_NUM > 8u */
 135:Generated_Source\PSoC4/adcUser.c ****             #if(adcUser_TOTAL_CHANNELS_NUM > 9u)
 136:Generated_Source\PSoC4/adcUser.c ****                 ,(uint8)(adcUser_cy_psoc4_sarmux_8__CH_9_PORT << 4u) |
ARM GAS  C:\Users\NGUYEN~1\AppData\Local\Temp\ccCvhWbK.s 			page 4


 137:Generated_Source\PSoC4/adcUser.c ****                  (uint8)adcUser_cy_psoc4_sarmux_8__CH_9_PIN
 138:Generated_Source\PSoC4/adcUser.c ****             #endif /* End adcUser_TOTAL_CHANNELS_NUM > 9u */
 139:Generated_Source\PSoC4/adcUser.c ****             #if(adcUser_TOTAL_CHANNELS_NUM > 10u)
 140:Generated_Source\PSoC4/adcUser.c ****                 ,(uint8)(adcUser_cy_psoc4_sarmux_8__CH_10_PORT << 4u) |
 141:Generated_Source\PSoC4/adcUser.c ****                  (uint8)adcUser_cy_psoc4_sarmux_8__CH_10_PIN
 142:Generated_Source\PSoC4/adcUser.c ****             #endif /* End adcUser_TOTAL_CHANNELS_NUM > 10u */
 143:Generated_Source\PSoC4/adcUser.c ****             #if(adcUser_TOTAL_CHANNELS_NUM > 11u)
 144:Generated_Source\PSoC4/adcUser.c ****                 ,(uint8)(adcUser_cy_psoc4_sarmux_8__CH_11_PORT << 4u) |
 145:Generated_Source\PSoC4/adcUser.c ****                  (uint8)adcUser_cy_psoc4_sarmux_8__CH_11_PIN
 146:Generated_Source\PSoC4/adcUser.c ****             #endif /* End adcUser_TOTAL_CHANNELS_NUM > 11u */
 147:Generated_Source\PSoC4/adcUser.c ****             #if(adcUser_TOTAL_CHANNELS_NUM > 12u)
 148:Generated_Source\PSoC4/adcUser.c ****                 ,(uint8)(adcUser_cy_psoc4_sarmux_8__CH_12_PORT << 4u) |
 149:Generated_Source\PSoC4/adcUser.c ****                  (uint8)adcUser_cy_psoc4_sarmux_8__CH_12_PIN
 150:Generated_Source\PSoC4/adcUser.c ****             #endif /* End adcUser_TOTAL_CHANNELS_NUM > 12u */
 151:Generated_Source\PSoC4/adcUser.c ****             #if(adcUser_TOTAL_CHANNELS_NUM > 13u)
 152:Generated_Source\PSoC4/adcUser.c ****                 ,(uint8)(adcUser_cy_psoc4_sarmux_8__CH_13_PORT << 4u) |
 153:Generated_Source\PSoC4/adcUser.c ****                  (uint8)adcUser_cy_psoc4_sarmux_8__CH_13_PIN
 154:Generated_Source\PSoC4/adcUser.c ****             #endif /* End adcUser_TOTAL_CHANNELS_NUM > 13u */
 155:Generated_Source\PSoC4/adcUser.c ****             #if(adcUser_TOTAL_CHANNELS_NUM > 14u)
 156:Generated_Source\PSoC4/adcUser.c ****                 ,(uint8)(adcUser_cy_psoc4_sarmux_8__CH_14_PORT << 4u) |
 157:Generated_Source\PSoC4/adcUser.c ****                  (uint8)adcUser_cy_psoc4_sarmux_8__CH_14_PIN
 158:Generated_Source\PSoC4/adcUser.c ****             #endif /* End adcUser_TOTAL_CHANNELS_NUM > 14u */
 159:Generated_Source\PSoC4/adcUser.c ****             #if(adcUser_TOTAL_CHANNELS_NUM > 15u)
 160:Generated_Source\PSoC4/adcUser.c ****                 ,(uint8)(adcUser_cy_psoc4_sarmux_8__CH_15_PORT << 4u) |
 161:Generated_Source\PSoC4/adcUser.c ****                  (uint8)adcUser_cy_psoc4_sarmux_8__CH_15_PIN
 162:Generated_Source\PSoC4/adcUser.c ****             #endif /* End adcUser_TOTAL_CHANNELS_NUM > 15u */
 163:Generated_Source\PSoC4/adcUser.c ****             #if(adcUser_TOTAL_CHANNELS_NUM > 16u)
 164:Generated_Source\PSoC4/adcUser.c ****                 ,(uint8)(adcUser_cy_psoc4_sarmux_8__CH_16_PORT << 4u) |
 165:Generated_Source\PSoC4/adcUser.c ****                  (uint8)adcUser_cy_psoc4_sarmux_8__CH_16_PIN
 166:Generated_Source\PSoC4/adcUser.c ****             #endif /* End adcUser_TOTAL_CHANNELS_NUM > 16u */
 167:Generated_Source\PSoC4/adcUser.c ****         };
 168:Generated_Source\PSoC4/adcUser.c ****     #endif /* End adcUser_TOTAL_CHANNELS_NUM > 1u */
 169:Generated_Source\PSoC4/adcUser.c **** 
 170:Generated_Source\PSoC4/adcUser.c ****     #if(adcUser_IRQ_REMOVE == 0u)
 171:Generated_Source\PSoC4/adcUser.c ****         /* Start and set interrupt vector */
 172:Generated_Source\PSoC4/adcUser.c ****         CyIntSetPriority(adcUser_INTC_NUMBER, adcUser_INTC_PRIOR_NUMBER);
  36              		.loc 1 172 0
  37 0002 0321     		movs	r1, #3
  38 0004 0E20     		movs	r0, #14
  39 0006 FFF7FEFF 		bl	CyIntSetPriority
  40              	.LVL0:
 173:Generated_Source\PSoC4/adcUser.c ****         (void)CyIntSetVector(adcUser_INTC_NUMBER, &adcUser_ISR);
  41              		.loc 1 173 0
  42 000a 2649     		ldr	r1, .L6
  43 000c 0E20     		movs	r0, #14
  44 000e FFF7FEFF 		bl	CyIntSetVector
  45              	.LVL1:
 174:Generated_Source\PSoC4/adcUser.c ****     #endif   /* End adcUser_IRQ_REMOVE */
 175:Generated_Source\PSoC4/adcUser.c **** 
 176:Generated_Source\PSoC4/adcUser.c ****     /* Init SAR and MUX registers */
 177:Generated_Source\PSoC4/adcUser.c ****     adcUser_SAR_CHAN_EN_REG = adcUser_DEFAULT_EN_CHANNELS;
  46              		.loc 1 177 0
  47 0012 0122     		movs	r2, #1
  48 0014 244B     		ldr	r3, .L6+4
  49 0016 1A60     		str	r2, [r3]
 178:Generated_Source\PSoC4/adcUser.c ****     adcUser_SAR_CTRL_REG |= adcUser_DEFAULT_CTRL_REG_CFG | 
 179:Generated_Source\PSoC4/adcUser.c ****         /* Enable the SAR internal pump when global pump is enabled */
ARM GAS  C:\Users\NGUYEN~1\AppData\Local\Temp\ccCvhWbK.s 			page 5


 180:Generated_Source\PSoC4/adcUser.c ****         (((adcUser_PUMP_CTRL_REG & adcUser_PUMP_CTRL_ENABLED) != 0u) ? 
  50              		.loc 1 180 0
  51 0018 244B     		ldr	r3, .L6+8
  52 001a 1B68     		ldr	r3, [r3]
 178:Generated_Source\PSoC4/adcUser.c ****     adcUser_SAR_CTRL_REG |= adcUser_DEFAULT_CTRL_REG_CFG | 
  53              		.loc 1 178 0
  54 001c 002B     		cmp	r3, #0
  55 001e 01DA     		bge	.L5
  56 0020 2349     		ldr	r1, .L6+12
  57 0022 00E0     		b	.L2
  58              	.L5:
  59 0024 2349     		ldr	r1, .L6+16
  60              	.L2:
 178:Generated_Source\PSoC4/adcUser.c ****     adcUser_SAR_CTRL_REG |= adcUser_DEFAULT_CTRL_REG_CFG | 
  61              		.loc 1 178 0 is_stmt 0 discriminator 4
  62 0026 244A     		ldr	r2, .L6+20
  63 0028 1368     		ldr	r3, [r2]
  64 002a 0B43     		orrs	r3, r1
  65 002c 1360     		str	r3, [r2]
 181:Generated_Source\PSoC4/adcUser.c ****         adcUser_BOOSTPUMP_EN : 0u);
 182:Generated_Source\PSoC4/adcUser.c ****     adcUser_SAR_SAMPLE_CTRL_REG = adcUser_DEFAULT_SAMPLE_CTRL_REG_CFG;
  66              		.loc 1 182 0 is_stmt 1 discriminator 4
  67 002e 234A     		ldr	r2, .L6+24
  68 0030 234B     		ldr	r3, .L6+28
  69 0032 1A60     		str	r2, [r3]
 183:Generated_Source\PSoC4/adcUser.c ****     adcUser_SAR_RANGE_THRES_REG = adcUser_DEFAULT_RANGE_THRES_REG_CFG;
  70              		.loc 1 183 0 discriminator 4
  71 0034 234A     		ldr	r2, .L6+32
  72 0036 244B     		ldr	r3, .L6+36
  73 0038 1A60     		str	r2, [r3]
 184:Generated_Source\PSoC4/adcUser.c ****     adcUser_SAR_RANGE_COND_REG  = adcUser_COMPARE_MODE;
  74              		.loc 1 184 0 discriminator 4
  75 003a 0023     		movs	r3, #0
  76 003c 234A     		ldr	r2, .L6+40
  77 003e 1360     		str	r3, [r2]
 185:Generated_Source\PSoC4/adcUser.c ****     adcUser_SAR_SAMPLE_TIME01_REG = adcUser_DEFAULT_SAMPLE_TIME01_REG_CFG;
  78              		.loc 1 185 0 discriminator 4
  79 0040 234A     		ldr	r2, .L6+44
  80 0042 2449     		ldr	r1, .L6+48
  81 0044 0A60     		str	r2, [r1]
 186:Generated_Source\PSoC4/adcUser.c ****     adcUser_SAR_SAMPLE_TIME23_REG = adcUser_DEFAULT_SAMPLE_TIME23_REG_CFG;
  82              		.loc 1 186 0 discriminator 4
  83 0046 2449     		ldr	r1, .L6+52
  84 0048 0A60     		str	r2, [r1]
 187:Generated_Source\PSoC4/adcUser.c ****     
 188:Generated_Source\PSoC4/adcUser.c ****     /* Connect Vm to VSSA when even one channel is single-ended or multiple channels configured */
 189:Generated_Source\PSoC4/adcUser.c ****     #if(adcUser_DEFAULT_MUX_SWITCH0 != 0u)
 190:Generated_Source\PSoC4/adcUser.c ****         adcUser_MUX_SWITCH0_REG |= adcUser_DEFAULT_MUX_SWITCH0;
  85              		.loc 1 190 0 discriminator 4
  86 004a 2449     		ldr	r1, .L6+56
  87 004c 0A68     		ldr	r2, [r1]
  88 004e 8020     		movs	r0, #128
  89 0050 4002     		lsls	r0, r0, #9
  90 0052 0243     		orrs	r2, r0
  91 0054 0A60     		str	r2, [r1]
 191:Generated_Source\PSoC4/adcUser.c ****         /* Set MUX_HW_CTRL_VSSA in MUX_SWITCH_HW_CTRL when multiple channels enabled */
 192:Generated_Source\PSoC4/adcUser.c ****         #if(adcUser_TOTAL_CHANNELS_NUM > 1u)
ARM GAS  C:\Users\NGUYEN~1\AppData\Local\Temp\ccCvhWbK.s 			page 6


 193:Generated_Source\PSoC4/adcUser.c ****             adcUser_MUX_SWITCH_HW_CTRL_REG |= adcUser_DEFAULT_MUX_SWITCH0;
 194:Generated_Source\PSoC4/adcUser.c ****         #endif /* adcUser_TOTAL_CHANNELS_NUM > 1u */
 195:Generated_Source\PSoC4/adcUser.c ****     #endif /*adcUser_CHANNELS_MODE !=0 */
 196:Generated_Source\PSoC4/adcUser.c **** 
 197:Generated_Source\PSoC4/adcUser.c ****     adcUser_SAR_SATURATE_INTR_MASK_REG = 0u;
  92              		.loc 1 197 0 discriminator 4
  93 0056 224A     		ldr	r2, .L6+60
  94 0058 1360     		str	r3, [r2]
 198:Generated_Source\PSoC4/adcUser.c ****     adcUser_SAR_RANGE_INTR_MASK_REG = 0u;
  95              		.loc 1 198 0 discriminator 4
  96 005a 224A     		ldr	r2, .L6+64
  97 005c 1360     		str	r3, [r2]
 199:Generated_Source\PSoC4/adcUser.c ****     adcUser_SAR_INTR_MASK_REG = adcUser_SAR_INTR_MASK;
  98              		.loc 1 199 0 discriminator 4
  99 005e 0133     		adds	r3, r3, #1
 100 0060 214A     		ldr	r2, .L6+68
 101 0062 1360     		str	r3, [r2]
 200:Generated_Source\PSoC4/adcUser.c **** 
 201:Generated_Source\PSoC4/adcUser.c ****     #if(adcUser_CY_SAR_IP_VER == adcUser_CY_SAR_IP_VER0)
 202:Generated_Source\PSoC4/adcUser.c ****         adcUser_ANA_TRIM_REG = adcUser_TRIM_COEF;
 102              		.loc 1 202 0 discriminator 4
 103 0064 0221     		movs	r1, #2
 104 0066 214A     		ldr	r2, .L6+72
 105 0068 1160     		str	r1, [r2]
 203:Generated_Source\PSoC4/adcUser.c ****     #endif /* (adcUser_CY_SAR_IP_VER == adcUser_CY_SAR_IP_VER0) */
 204:Generated_Source\PSoC4/adcUser.c **** 
 205:Generated_Source\PSoC4/adcUser.c ****     /* Read and modify default configuration based on characterization */
 206:Generated_Source\PSoC4/adcUser.c ****     tmpRegVal = adcUser_SAR_DFT_CTRL_REG;
 106              		.loc 1 206 0 discriminator 4
 107 006a 2148     		ldr	r0, .L6+76
 108 006c 0468     		ldr	r4, [r0]
 109              	.LVL2:
 207:Generated_Source\PSoC4/adcUser.c ****     tmpRegVal &= (uint32)~adcUser_DCEN;
 110              		.loc 1 207 0 discriminator 4
 111 006e 214A     		ldr	r2, .L6+80
 112 0070 2240     		ands	r2, r4
 113              	.LVL3:
 208:Generated_Source\PSoC4/adcUser.c ****     
 209:Generated_Source\PSoC4/adcUser.c ****     #if(adcUser_CY_SAR_IP_VER == adcUser_CY_SAR_IP_VER0)
 210:Generated_Source\PSoC4/adcUser.c ****         #if(adcUser_NOMINAL_CLOCK_FREQ > (adcUser_MAX_FREQUENCY / 2))
 211:Generated_Source\PSoC4/adcUser.c ****             tmpRegVal |= adcUser_SEL_CSEL_DFT_CHAR;
 212:Generated_Source\PSoC4/adcUser.c ****         #else  /* clock speed < 9 Mhz */
 213:Generated_Source\PSoC4/adcUser.c ****             tmpRegVal |= adcUser_DLY_INC;
 114              		.loc 1 213 0 discriminator 4
 115 0072 1343     		orrs	r3, r2
 116              	.LVL4:
 214:Generated_Source\PSoC4/adcUser.c ****         #endif /* clock speed > 9 Mhz */
 215:Generated_Source\PSoC4/adcUser.c ****     #else
 216:Generated_Source\PSoC4/adcUser.c ****         #if ((adcUser_DEFAULT_VREF_SEL == adcUser__INTERNAL1024) || \
 217:Generated_Source\PSoC4/adcUser.c ****              (adcUser_DEFAULT_VREF_SEL == adcUser__INTERNALVREF))
 218:Generated_Source\PSoC4/adcUser.c ****             tmpRegVal |= adcUser_DLY_INC;
 219:Generated_Source\PSoC4/adcUser.c ****         #else
 220:Generated_Source\PSoC4/adcUser.c ****             tmpRegVal |= adcUser_DCEN;
 221:Generated_Source\PSoC4/adcUser.c ****             tmpRegVal &= (uint32)~adcUser_DLY_INC;
 222:Generated_Source\PSoC4/adcUser.c ****         #endif /* ((adcUser_DEFAULT_VREF_SEL == adcUser__INTERNAL1024) || \
 223:Generated_Source\PSoC4/adcUser.c ****                    (adcUser_DEFAULT_VREF_SEL == adcUser__INTERNALVREF)) */
 224:Generated_Source\PSoC4/adcUser.c ****     #endif /* (adcUser_CY_SAR_IP_VER == adcUser_CY_SAR_IP_VER0) */
ARM GAS  C:\Users\NGUYEN~1\AppData\Local\Temp\ccCvhWbK.s 			page 7


 225:Generated_Source\PSoC4/adcUser.c ****     
 226:Generated_Source\PSoC4/adcUser.c ****     adcUser_SAR_DFT_CTRL_REG = tmpRegVal;
 117              		.loc 1 226 0 discriminator 4
 118 0074 0360     		str	r3, [r0]
 227:Generated_Source\PSoC4/adcUser.c **** 
 228:Generated_Source\PSoC4/adcUser.c ****     #if(adcUser_MAX_RESOLUTION != adcUser_RESOLUTION_12)
 229:Generated_Source\PSoC4/adcUser.c ****         adcUser_WOUNDING_REG = adcUser_ALT_WOUNDING;
 119              		.loc 1 229 0 discriminator 4
 120 0076 204B     		ldr	r3, .L6+84
 121              	.LVL5:
 122 0078 1960     		str	r1, [r3]
 123              	.LVL6:
 230:Generated_Source\PSoC4/adcUser.c ****     #endif /* adcUser_MAX_RESOLUTION != adcUser_RESOLUTION_12 */
 231:Generated_Source\PSoC4/adcUser.c **** 
 232:Generated_Source\PSoC4/adcUser.c ****     for(chNum = 0u; chNum < adcUser_TOTAL_CHANNELS_NUM; chNum++)
 124              		.loc 1 232 0 discriminator 4
 125 007a 0023     		movs	r3, #0
 126              	.LVL7:
 127 007c 0EE0     		b	.L3
 128              	.LVL8:
 129              	.L4:
 233:Generated_Source\PSoC4/adcUser.c ****     {
 234:Generated_Source\PSoC4/adcUser.c ****         tmpRegVal = (adcUser_channelsConfig[chNum] & adcUser_CHANNEL_CONFIG_MASK);
 235:Generated_Source\PSoC4/adcUser.c ****         #if(adcUser_TOTAL_CHANNELS_NUM > 1u)
 236:Generated_Source\PSoC4/adcUser.c ****             tmpRegVal |= adcUser_InputsPlacement[chNum];
 237:Generated_Source\PSoC4/adcUser.c ****         #endif /* End adcUser_TOTAL_CHANNELS_NUM > 1u */
 238:Generated_Source\PSoC4/adcUser.c ****         
 239:Generated_Source\PSoC4/adcUser.c ****         
 240:Generated_Source\PSoC4/adcUser.c ****         /* When the part is limited to 10-bit then the SUB_RESOLUTION bit
 241:Generated_Source\PSoC4/adcUser.c ****         *  will be ignored and the RESOLUTION bit selects between 10-bit
 242:Generated_Source\PSoC4/adcUser.c ****         *  (0) and 8-bit (1) resolution.
 243:Generated_Source\PSoC4/adcUser.c ****         */
 244:Generated_Source\PSoC4/adcUser.c ****         #if((adcUser_MAX_RESOLUTION != adcUser_RESOLUTION_12) && \
 245:Generated_Source\PSoC4/adcUser.c ****             (adcUser_ALT_WOUNDING == adcUser_WOUNDING_10BIT))
 246:Generated_Source\PSoC4/adcUser.c ****             tmpRegVal &= (uint32)(~adcUser_ALT_RESOLUTION_ON);
 247:Generated_Source\PSoC4/adcUser.c ****         #endif /* adcUser_MAX_RESOLUTION != adcUser_RESOLUTION_12 */
 248:Generated_Source\PSoC4/adcUser.c **** 
 249:Generated_Source\PSoC4/adcUser.c ****         #if(adcUser_INJ_CHANNEL_ENABLED)
 250:Generated_Source\PSoC4/adcUser.c ****         if(chNum < adcUser_SEQUENCED_CHANNELS_NUM)
 251:Generated_Source\PSoC4/adcUser.c ****         #endif /* adcUser_INJ_CHANNEL_ENABLED */
 252:Generated_Source\PSoC4/adcUser.c ****         {
 253:Generated_Source\PSoC4/adcUser.c ****             CY_SET_REG32((reg32 *)(adcUser_SAR_CHAN_CONFIG_IND + (uint32)(chNum << 2)), tmpRegVal);
 130              		.loc 1 253 0
 131 007e 9A00     		lsls	r2, r3, #2
 132 0080 1E49     		ldr	r1, .L6+88
 133 0082 5118     		adds	r1, r2, r1
 134 0084 8020     		movs	r0, #128
 135 0086 8000     		lsls	r0, r0, #2
 136 0088 0860     		str	r0, [r1]
 137              	.LVL9:
 254:Generated_Source\PSoC4/adcUser.c **** 
 255:Generated_Source\PSoC4/adcUser.c ****             if((adcUser_channelsConfig[chNum] & adcUser_IS_SATURATE_EN_MASK) != 0u)
 256:Generated_Source\PSoC4/adcUser.c ****             {
 257:Generated_Source\PSoC4/adcUser.c ****                 adcUser_SAR_SATURATE_INTR_MASK_REG |= (uint16)((uint16)1 << chNum);
 258:Generated_Source\PSoC4/adcUser.c ****             }
 259:Generated_Source\PSoC4/adcUser.c **** 
 260:Generated_Source\PSoC4/adcUser.c ****             if((adcUser_channelsConfig[chNum] & adcUser_IS_RANGE_CTRL_EN_MASK) != 0u)
ARM GAS  C:\Users\NGUYEN~1\AppData\Local\Temp\ccCvhWbK.s 			page 8


 261:Generated_Source\PSoC4/adcUser.c ****             {
 262:Generated_Source\PSoC4/adcUser.c ****                 adcUser_SAR_RANGE_INTR_MASK_REG |= (uint16)((uint16)1 << chNum);
 263:Generated_Source\PSoC4/adcUser.c ****             }
 264:Generated_Source\PSoC4/adcUser.c ****         }
 265:Generated_Source\PSoC4/adcUser.c ****         #if(adcUser_INJ_CHANNEL_ENABLED)
 266:Generated_Source\PSoC4/adcUser.c ****             else
 267:Generated_Source\PSoC4/adcUser.c ****             {
 268:Generated_Source\PSoC4/adcUser.c ****                 CY_SET_REG32(adcUser_SAR_INJ_CHAN_CONFIG_PTR, tmpRegVal | adcUser_INJ_TAILGATING);
 269:Generated_Source\PSoC4/adcUser.c **** 
 270:Generated_Source\PSoC4/adcUser.c ****                 if((adcUser_channelsConfig[chNum] & adcUser_IS_SATURATE_EN_MASK) != 0u)
 271:Generated_Source\PSoC4/adcUser.c ****                 {
 272:Generated_Source\PSoC4/adcUser.c ****                     adcUser_SAR_INTR_MASK_REG |= adcUser_INJ_SATURATE_MASK;
 273:Generated_Source\PSoC4/adcUser.c ****                 }
 274:Generated_Source\PSoC4/adcUser.c **** 
 275:Generated_Source\PSoC4/adcUser.c ****                 if((adcUser_channelsConfig[chNum] & adcUser_IS_RANGE_CTRL_EN_MASK) != 0u)
 276:Generated_Source\PSoC4/adcUser.c ****                 {
 277:Generated_Source\PSoC4/adcUser.c ****                     adcUser_SAR_INTR_MASK_REG |= adcUser_INJ_RANGE_MASK;
 278:Generated_Source\PSoC4/adcUser.c ****                 }
 279:Generated_Source\PSoC4/adcUser.c ****             }
 280:Generated_Source\PSoC4/adcUser.c ****         #endif /* adcUser_INJ_CHANNEL_ENABLED */
 281:Generated_Source\PSoC4/adcUser.c **** 
 282:Generated_Source\PSoC4/adcUser.c ****         if((adcUser_channelsConfig[chNum] & adcUser_ALT_RESOLUTION_ON) != 0u)
 283:Generated_Source\PSoC4/adcUser.c ****         {
 284:Generated_Source\PSoC4/adcUser.c ****                counts = (int32)adcUser_DEFAULT_MAX_WRK_ALT;
 285:Generated_Source\PSoC4/adcUser.c ****         }
 286:Generated_Source\PSoC4/adcUser.c ****         else
 287:Generated_Source\PSoC4/adcUser.c ****         {
 288:Generated_Source\PSoC4/adcUser.c ****                counts = (int32)adcUser_SAR_WRK_MAX_12BIT;
 289:Generated_Source\PSoC4/adcUser.c ****         }
 290:Generated_Source\PSoC4/adcUser.c **** 
 291:Generated_Source\PSoC4/adcUser.c ****         if((adcUser_channelsConfig[chNum] & adcUser_DIFFERENTIAL_EN) == 0u)
 292:Generated_Source\PSoC4/adcUser.c ****         {
 293:Generated_Source\PSoC4/adcUser.c ****             #if((adcUser_DEFAULT_SE_RESULT_FORMAT_SEL == adcUser__FSIGNED) && \
 294:Generated_Source\PSoC4/adcUser.c ****                 (adcUser_DEFAULT_NEG_INPUT_SEL == adcUser__VREF))
 295:Generated_Source\PSoC4/adcUser.c ****                 /* Set offset to the minus half scale to convert results to unsigned format */
 296:Generated_Source\PSoC4/adcUser.c ****                 adcUser_offset[chNum] = (int16)(counts / -2);
 297:Generated_Source\PSoC4/adcUser.c ****             #else
 298:Generated_Source\PSoC4/adcUser.c ****                 adcUser_offset[chNum] = 0;
 138              		.loc 1 298 0
 139 008a 5800     		lsls	r0, r3, #1
 140 008c 0024     		movs	r4, #0
 141 008e 1C49     		ldr	r1, .L6+92
 142 0090 4452     		strh	r4, [r0, r1]
 299:Generated_Source\PSoC4/adcUser.c ****             #endif /* end DEFAULT_SE_RESULT_FORMAT_SEL == adcUser__FSIGNED */
 300:Generated_Source\PSoC4/adcUser.c ****         }
 301:Generated_Source\PSoC4/adcUser.c ****         else    /* Differential channel */
 302:Generated_Source\PSoC4/adcUser.c ****         {
 303:Generated_Source\PSoC4/adcUser.c ****             #if(adcUser_DEFAULT_DIFF_RESULT_FORMAT_SEL == adcUser__FUNSIGNED)
 304:Generated_Source\PSoC4/adcUser.c ****                 /* Set offset to the half scale to convert results to signed format */
 305:Generated_Source\PSoC4/adcUser.c ****                 adcUser_offset[chNum] = (int16)(counts / 2);
 306:Generated_Source\PSoC4/adcUser.c ****             #else
 307:Generated_Source\PSoC4/adcUser.c ****                 adcUser_offset[chNum] = 0;
 308:Generated_Source\PSoC4/adcUser.c ****             #endif /* end adcUser_DEFAULT_DIFF_RESULT_FORMAT_SEL == adcUser__FUNSIGNED */
 309:Generated_Source\PSoC4/adcUser.c ****         }
 310:Generated_Source\PSoC4/adcUser.c ****         /* Calculate gain in counts per 10 volts with rounding */
 311:Generated_Source\PSoC4/adcUser.c ****         adcUser_countsPer10Volt[chNum] = (int16)(((counts * adcUser_10MV_COUNTS) +
 143              		.loc 1 311 0
ARM GAS  C:\Users\NGUYEN~1\AppData\Local\Temp\ccCvhWbK.s 			page 9


 144 0092 8020     		movs	r0, #128
 145 0094 4000     		lsls	r0, r0, #1
 146 0096 1B49     		ldr	r1, .L6+96
 147 0098 5050     		str	r0, [r2, r1]
 232:Generated_Source\PSoC4/adcUser.c ****     {
 148              		.loc 1 232 0
 149 009a 0133     		adds	r3, r3, #1
 150              	.LVL10:
 151              	.L3:
 232:Generated_Source\PSoC4/adcUser.c ****     {
 152              		.loc 1 232 0 is_stmt 0 discriminator 1
 153 009c 002B     		cmp	r3, #0
 154 009e EED0     		beq	.L4
 312:Generated_Source\PSoC4/adcUser.c ****                             adcUser_DEFAULT_VREF_MV_VALUE) / (adcUser_DEFAULT_VREF_MV_VALUE * 2));
 313:Generated_Source\PSoC4/adcUser.c ****     }
 314:Generated_Source\PSoC4/adcUser.c **** }
 155              		.loc 1 314 0 is_stmt 1
 156              		@ sp needed
 157 00a0 10BD     		pop	{r4, pc}
 158              	.L7:
 159 00a2 C046     		.align	2
 160              	.L6:
 161 00a4 00000000 		.word	adcUser_ISR
 162 00a8 20001A40 		.word	1075445792
 163 00ac 80031A40 		.word	1075446656
 164 00b0 70021053 		.word	1393558128
 165 00b4 70020053 		.word	1392509552
 166 00b8 00001A40 		.word	1075445760
 167 00bc 8E000080 		.word	-2147483506
 168 00c0 04001A40 		.word	1075445764
 169 00c4 0000FF07 		.word	134152192
 170 00c8 18001A40 		.word	1075445784
 171 00cc 1C001A40 		.word	1075445788
 172 00d0 02000200 		.word	131074
 173 00d4 10001A40 		.word	1075445776
 174 00d8 14001A40 		.word	1075445780
 175 00dc 00031A40 		.word	1075446528
 176 00e0 28021A40 		.word	1075446312
 177 00e4 38021A40 		.word	1075446328
 178 00e8 18021A40 		.word	1075446296
 179 00ec 000F1A40 		.word	1075449600
 180 00f0 30001A40 		.word	1075445808
 181 00f4 FFFFFFDF 		.word	-536870913
 182 00f8 040F1A40 		.word	1075449604
 183 00fc 80001A40 		.word	1075445888
 184 0100 00000000 		.word	adcUser_offset
 185 0104 00000000 		.word	adcUser_countsPer10Volt
 186              		.cfi_endproc
 187              	.LFE1:
 188              		.size	adcUser_Init, .-adcUser_Init
 189              		.section	.text.adcUser_Enable,"ax",%progbits
 190              		.align	2
 191              		.global	adcUser_Enable
 192              		.code	16
 193              		.thumb_func
 194              		.type	adcUser_Enable, %function
 195              	adcUser_Enable:
ARM GAS  C:\Users\NGUYEN~1\AppData\Local\Temp\ccCvhWbK.s 			page 10


 196              	.LFB2:
 315:Generated_Source\PSoC4/adcUser.c **** 
 316:Generated_Source\PSoC4/adcUser.c **** /*******************************************************************************
 317:Generated_Source\PSoC4/adcUser.c **** * Function Name: ADC_SAR_1_Enable
 318:Generated_Source\PSoC4/adcUser.c **** ********************************************************************************
 319:Generated_Source\PSoC4/adcUser.c **** *
 320:Generated_Source\PSoC4/adcUser.c **** * Summary:
 321:Generated_Source\PSoC4/adcUser.c **** *  Enables the clock and analog power for SAR ADC.
 322:Generated_Source\PSoC4/adcUser.c **** *
 323:Generated_Source\PSoC4/adcUser.c **** * Parameters:
 324:Generated_Source\PSoC4/adcUser.c **** *  None.
 325:Generated_Source\PSoC4/adcUser.c **** *
 326:Generated_Source\PSoC4/adcUser.c **** * Return:
 327:Generated_Source\PSoC4/adcUser.c **** *  None.
 328:Generated_Source\PSoC4/adcUser.c **** *
 329:Generated_Source\PSoC4/adcUser.c **** *******************************************************************************/
 330:Generated_Source\PSoC4/adcUser.c **** void adcUser_Enable(void)
 331:Generated_Source\PSoC4/adcUser.c **** {
 197              		.loc 1 331 0
 198              		.cfi_startproc
 199              		@ args = 0, pretend = 0, frame = 0
 200              		@ frame_needed = 0, uses_anonymous_args = 0
 201 0000 10B5     		push	{r4, lr}
 202              		.cfi_def_cfa_offset 8
 203              		.cfi_offset 4, -8
 204              		.cfi_offset 14, -4
 332:Generated_Source\PSoC4/adcUser.c ****     if (0u == (adcUser_SAR_CTRL_REG & adcUser_ENABLE))
 205              		.loc 1 332 0
 206 0002 074B     		ldr	r3, .L10
 207 0004 1B68     		ldr	r3, [r3]
 208 0006 002B     		cmp	r3, #0
 209 0008 08DB     		blt	.L8
 333:Generated_Source\PSoC4/adcUser.c ****     {
 334:Generated_Source\PSoC4/adcUser.c ****         #if(adcUser_CY_SAR_IP_VER != adcUser_CY_SAR_IP_VER0)
 335:Generated_Source\PSoC4/adcUser.c **** 
 336:Generated_Source\PSoC4/adcUser.c ****             while (0u != (adcUser_SAR_STATUS_REG & adcUser_STATUS_BUSY))
 337:Generated_Source\PSoC4/adcUser.c ****             {
 338:Generated_Source\PSoC4/adcUser.c ****                 /* wait for SAR to go idle to avoid deadlock */
 339:Generated_Source\PSoC4/adcUser.c ****             }
 340:Generated_Source\PSoC4/adcUser.c ****         #endif /* (adcUser_CY_SAR_IP_VER != adcUser_CY_SAR_IP_VER0) */
 341:Generated_Source\PSoC4/adcUser.c ****         
 342:Generated_Source\PSoC4/adcUser.c ****         adcUser_SAR_CTRL_REG |= adcUser_ENABLE;
 210              		.loc 1 342 0
 211 000a 054A     		ldr	r2, .L10
 212 000c 1368     		ldr	r3, [r2]
 213 000e 8021     		movs	r1, #128
 214 0010 0906     		lsls	r1, r1, #24
 215 0012 0B43     		orrs	r3, r1
 216 0014 1360     		str	r3, [r2]
 343:Generated_Source\PSoC4/adcUser.c ****         
 344:Generated_Source\PSoC4/adcUser.c ****         /* The block is ready to use 10 us after the enable signal is set high. */
 345:Generated_Source\PSoC4/adcUser.c ****         CyDelayUs(adcUser_10US_DELAY);         
 217              		.loc 1 345 0
 218 0016 0A20     		movs	r0, #10
 219 0018 FFF7FEFF 		bl	CyDelayUs
 220              	.LVL11:
 221              	.L8:
ARM GAS  C:\Users\NGUYEN~1\AppData\Local\Temp\ccCvhWbK.s 			page 11


 346:Generated_Source\PSoC4/adcUser.c ****     }
 347:Generated_Source\PSoC4/adcUser.c **** }
 222              		.loc 1 347 0
 223              		@ sp needed
 224 001c 10BD     		pop	{r4, pc}
 225              	.L11:
 226 001e C046     		.align	2
 227              	.L10:
 228 0020 00001A40 		.word	1075445760
 229              		.cfi_endproc
 230              	.LFE2:
 231              		.size	adcUser_Enable, .-adcUser_Enable
 232              		.section	.text.adcUser_Start,"ax",%progbits
 233              		.align	2
 234              		.global	adcUser_Start
 235              		.code	16
 236              		.thumb_func
 237              		.type	adcUser_Start, %function
 238              	adcUser_Start:
 239              	.LFB0:
  64:Generated_Source\PSoC4/adcUser.c ****     /* If not Initialized then initialize all required hardware and software */
 240              		.loc 1 64 0
 241              		.cfi_startproc
 242              		@ args = 0, pretend = 0, frame = 0
 243              		@ frame_needed = 0, uses_anonymous_args = 0
 244 0000 10B5     		push	{r4, lr}
 245              		.cfi_def_cfa_offset 8
 246              		.cfi_offset 4, -8
 247              		.cfi_offset 14, -4
  66:Generated_Source\PSoC4/adcUser.c ****     {
 248              		.loc 1 66 0
 249 0002 064B     		ldr	r3, .L14
 250 0004 1B78     		ldrb	r3, [r3]
 251 0006 002B     		cmp	r3, #0
 252 0008 04D1     		bne	.L13
  68:Generated_Source\PSoC4/adcUser.c ****         adcUser_initVar = 1u;
 253              		.loc 1 68 0
 254 000a FFF7FEFF 		bl	adcUser_Init
 255              	.LVL12:
  69:Generated_Source\PSoC4/adcUser.c ****     }
 256              		.loc 1 69 0
 257 000e 0122     		movs	r2, #1
 258 0010 024B     		ldr	r3, .L14
 259 0012 1A70     		strb	r2, [r3]
 260              	.L13:
  71:Generated_Source\PSoC4/adcUser.c **** }
 261              		.loc 1 71 0
 262 0014 FFF7FEFF 		bl	adcUser_Enable
 263              	.LVL13:
  72:Generated_Source\PSoC4/adcUser.c **** 
 264              		.loc 1 72 0
 265              		@ sp needed
 266 0018 10BD     		pop	{r4, pc}
 267              	.L15:
 268 001a C046     		.align	2
 269              	.L14:
 270 001c 00000000 		.word	.LANCHOR0
ARM GAS  C:\Users\NGUYEN~1\AppData\Local\Temp\ccCvhWbK.s 			page 12


 271              		.cfi_endproc
 272              	.LFE0:
 273              		.size	adcUser_Start, .-adcUser_Start
 274              		.section	.text.adcUser_Stop,"ax",%progbits
 275              		.align	2
 276              		.global	adcUser_Stop
 277              		.code	16
 278              		.thumb_func
 279              		.type	adcUser_Stop, %function
 280              	adcUser_Stop:
 281              	.LFB3:
 348:Generated_Source\PSoC4/adcUser.c **** 
 349:Generated_Source\PSoC4/adcUser.c **** 
 350:Generated_Source\PSoC4/adcUser.c **** /*******************************************************************************
 351:Generated_Source\PSoC4/adcUser.c **** * Function Name: adcUser_Stop
 352:Generated_Source\PSoC4/adcUser.c **** ********************************************************************************
 353:Generated_Source\PSoC4/adcUser.c **** *
 354:Generated_Source\PSoC4/adcUser.c **** * Summary:
 355:Generated_Source\PSoC4/adcUser.c **** *  This function stops ADC conversions and puts the ADC into its lowest power
 356:Generated_Source\PSoC4/adcUser.c **** *  mode.
 357:Generated_Source\PSoC4/adcUser.c **** *
 358:Generated_Source\PSoC4/adcUser.c **** * Parameters:
 359:Generated_Source\PSoC4/adcUser.c **** *  None.
 360:Generated_Source\PSoC4/adcUser.c **** *
 361:Generated_Source\PSoC4/adcUser.c **** * Return:
 362:Generated_Source\PSoC4/adcUser.c **** *  None.
 363:Generated_Source\PSoC4/adcUser.c **** *
 364:Generated_Source\PSoC4/adcUser.c **** *******************************************************************************/
 365:Generated_Source\PSoC4/adcUser.c **** void adcUser_Stop(void)
 366:Generated_Source\PSoC4/adcUser.c **** {
 282              		.loc 1 366 0
 283              		.cfi_startproc
 284              		@ args = 0, pretend = 0, frame = 0
 285              		@ frame_needed = 0, uses_anonymous_args = 0
 286              		@ link register save eliminated.
 367:Generated_Source\PSoC4/adcUser.c ****     adcUser_SAR_CTRL_REG &= (uint32)~adcUser_ENABLE;
 287              		.loc 1 367 0
 288 0000 024A     		ldr	r2, .L17
 289 0002 1368     		ldr	r3, [r2]
 290 0004 5B00     		lsls	r3, r3, #1
 291 0006 5B08     		lsrs	r3, r3, #1
 292 0008 1360     		str	r3, [r2]
 368:Generated_Source\PSoC4/adcUser.c **** }
 293              		.loc 1 368 0
 294              		@ sp needed
 295 000a 7047     		bx	lr
 296              	.L18:
 297              		.align	2
 298              	.L17:
 299 000c 00001A40 		.word	1075445760
 300              		.cfi_endproc
 301              	.LFE3:
 302              		.size	adcUser_Stop, .-adcUser_Stop
 303              		.section	.text.adcUser_StartConvert,"ax",%progbits
 304              		.align	2
 305              		.global	adcUser_StartConvert
 306              		.code	16
ARM GAS  C:\Users\NGUYEN~1\AppData\Local\Temp\ccCvhWbK.s 			page 13


 307              		.thumb_func
 308              		.type	adcUser_StartConvert, %function
 309              	adcUser_StartConvert:
 310              	.LFB4:
 369:Generated_Source\PSoC4/adcUser.c **** 
 370:Generated_Source\PSoC4/adcUser.c **** 
 371:Generated_Source\PSoC4/adcUser.c **** /*******************************************************************************
 372:Generated_Source\PSoC4/adcUser.c **** * Function Name: adcUser_StartConvert
 373:Generated_Source\PSoC4/adcUser.c **** ********************************************************************************
 374:Generated_Source\PSoC4/adcUser.c **** *
 375:Generated_Source\PSoC4/adcUser.c **** * Summary:
 376:Generated_Source\PSoC4/adcUser.c **** *  Description:
 377:Generated_Source\PSoC4/adcUser.c **** *  For free running mode, this API starts the conversion process and it
 378:Generated_Source\PSoC4/adcUser.c **** *  runs continuously.
 379:Generated_Source\PSoC4/adcUser.c **** *
 380:Generated_Source\PSoC4/adcUser.c **** *  In a triggered mode, this routine triggers every conversion by
 381:Generated_Source\PSoC4/adcUser.c **** *  writing into the FW_TRIGGER bit in SAR_START_CTRL reg. In triggered mode,
 382:Generated_Source\PSoC4/adcUser.c **** *  every conversion has to start by this API.
 383:Generated_Source\PSoC4/adcUser.c **** *
 384:Generated_Source\PSoC4/adcUser.c **** * Parameters:
 385:Generated_Source\PSoC4/adcUser.c **** *  None.
 386:Generated_Source\PSoC4/adcUser.c **** *
 387:Generated_Source\PSoC4/adcUser.c **** * Return:
 388:Generated_Source\PSoC4/adcUser.c **** *  None.
 389:Generated_Source\PSoC4/adcUser.c **** *
 390:Generated_Source\PSoC4/adcUser.c **** *******************************************************************************/
 391:Generated_Source\PSoC4/adcUser.c **** void adcUser_StartConvert(void)
 392:Generated_Source\PSoC4/adcUser.c **** {
 311              		.loc 1 392 0
 312              		.cfi_startproc
 313              		@ args = 0, pretend = 0, frame = 0
 314              		@ frame_needed = 0, uses_anonymous_args = 0
 315              		@ link register save eliminated.
 393:Generated_Source\PSoC4/adcUser.c ****     #if(adcUser_DEFAULT_SAMPLE_MODE_SEL == adcUser__FREERUNNING)
 394:Generated_Source\PSoC4/adcUser.c ****         adcUser_SAR_SAMPLE_CTRL_REG |= adcUser_CONTINUOUS_EN;
 316              		.loc 1 394 0
 317 0000 034A     		ldr	r2, .L20
 318 0002 1368     		ldr	r3, [r2]
 319 0004 8021     		movs	r1, #128
 320 0006 4902     		lsls	r1, r1, #9
 321 0008 0B43     		orrs	r3, r1
 322 000a 1360     		str	r3, [r2]
 395:Generated_Source\PSoC4/adcUser.c ****     #else /* Firmware trigger */
 396:Generated_Source\PSoC4/adcUser.c ****         adcUser_SAR_START_CTRL_REG = adcUser_FW_TRIGGER;
 397:Generated_Source\PSoC4/adcUser.c ****     #endif /* End adcUser_DEFAULT_SAMPLE_MODE == adcUser__FREERUNNING */
 398:Generated_Source\PSoC4/adcUser.c **** 
 399:Generated_Source\PSoC4/adcUser.c **** }
 323              		.loc 1 399 0
 324              		@ sp needed
 325 000c 7047     		bx	lr
 326              	.L21:
 327 000e C046     		.align	2
 328              	.L20:
 329 0010 04001A40 		.word	1075445764
 330              		.cfi_endproc
 331              	.LFE4:
 332              		.size	adcUser_StartConvert, .-adcUser_StartConvert
ARM GAS  C:\Users\NGUYEN~1\AppData\Local\Temp\ccCvhWbK.s 			page 14


 333              		.section	.text.adcUser_StopConvert,"ax",%progbits
 334              		.align	2
 335              		.global	adcUser_StopConvert
 336              		.code	16
 337              		.thumb_func
 338              		.type	adcUser_StopConvert, %function
 339              	adcUser_StopConvert:
 340              	.LFB5:
 400:Generated_Source\PSoC4/adcUser.c **** 
 401:Generated_Source\PSoC4/adcUser.c **** 
 402:Generated_Source\PSoC4/adcUser.c **** /*******************************************************************************
 403:Generated_Source\PSoC4/adcUser.c **** * Function Name: adcUser_StopConvert
 404:Generated_Source\PSoC4/adcUser.c **** ********************************************************************************
 405:Generated_Source\PSoC4/adcUser.c **** *
 406:Generated_Source\PSoC4/adcUser.c **** * Summary:
 407:Generated_Source\PSoC4/adcUser.c **** *  Forces the ADC to stop all conversions.
 408:Generated_Source\PSoC4/adcUser.c **** *
 409:Generated_Source\PSoC4/adcUser.c **** * Parameters:
 410:Generated_Source\PSoC4/adcUser.c **** *  None.
 411:Generated_Source\PSoC4/adcUser.c **** *
 412:Generated_Source\PSoC4/adcUser.c **** * Return:
 413:Generated_Source\PSoC4/adcUser.c **** *  None.
 414:Generated_Source\PSoC4/adcUser.c **** *
 415:Generated_Source\PSoC4/adcUser.c **** *******************************************************************************/
 416:Generated_Source\PSoC4/adcUser.c **** void adcUser_StopConvert(void)
 417:Generated_Source\PSoC4/adcUser.c **** {
 341              		.loc 1 417 0
 342              		.cfi_startproc
 343              		@ args = 0, pretend = 0, frame = 0
 344              		@ frame_needed = 0, uses_anonymous_args = 0
 345              		@ link register save eliminated.
 418:Generated_Source\PSoC4/adcUser.c ****     #if(adcUser_DEFAULT_SAMPLE_MODE_SEL == adcUser__FREERUNNING)
 419:Generated_Source\PSoC4/adcUser.c ****         adcUser_SAR_SAMPLE_CTRL_REG &= (uint32)(~adcUser_CONTINUOUS_EN);
 346              		.loc 1 419 0
 347 0000 024A     		ldr	r2, .L23
 348 0002 1168     		ldr	r1, [r2]
 349 0004 024B     		ldr	r3, .L23+4
 350 0006 0B40     		ands	r3, r1
 351 0008 1360     		str	r3, [r2]
 420:Generated_Source\PSoC4/adcUser.c ****     #endif /* adcUser_DEFAULT_SAMPLE_MODE == adcUser__FREERUNNING */
 421:Generated_Source\PSoC4/adcUser.c **** }
 352              		.loc 1 421 0
 353              		@ sp needed
 354 000a 7047     		bx	lr
 355              	.L24:
 356              		.align	2
 357              	.L23:
 358 000c 04001A40 		.word	1075445764
 359 0010 FFFFFEFF 		.word	-65537
 360              		.cfi_endproc
 361              	.LFE5:
 362              		.size	adcUser_StopConvert, .-adcUser_StopConvert
 363              		.section	.text.adcUser_IsEndConversion,"ax",%progbits
 364              		.align	2
 365              		.global	adcUser_IsEndConversion
 366              		.code	16
 367              		.thumb_func
ARM GAS  C:\Users\NGUYEN~1\AppData\Local\Temp\ccCvhWbK.s 			page 15


 368              		.type	adcUser_IsEndConversion, %function
 369              	adcUser_IsEndConversion:
 370              	.LFB6:
 422:Generated_Source\PSoC4/adcUser.c **** 
 423:Generated_Source\PSoC4/adcUser.c **** 
 424:Generated_Source\PSoC4/adcUser.c **** /*******************************************************************************
 425:Generated_Source\PSoC4/adcUser.c **** * Function Name: adcUser_IsEndConversion
 426:Generated_Source\PSoC4/adcUser.c **** ********************************************************************************
 427:Generated_Source\PSoC4/adcUser.c **** *
 428:Generated_Source\PSoC4/adcUser.c **** * Summary:
 429:Generated_Source\PSoC4/adcUser.c **** *  Description: Checks for ADC end of conversion for the case one
 430:Generated_Source\PSoC4/adcUser.c **** *  channel and end of scan for the case of multiple channels. It acts
 431:Generated_Source\PSoC4/adcUser.c **** *  as a software version of the EOC. This function provides the
 432:Generated_Source\PSoC4/adcUser.c **** *  programmer with two options. In one mode this function
 433:Generated_Source\PSoC4/adcUser.c **** *  immediately returns with the conversion status. In the other mode,
 434:Generated_Source\PSoC4/adcUser.c **** *  the function does not return (blocking) until the conversion has
 435:Generated_Source\PSoC4/adcUser.c **** *  completed.
 436:Generated_Source\PSoC4/adcUser.c **** *
 437:Generated_Source\PSoC4/adcUser.c **** * Parameters:
 438:Generated_Source\PSoC4/adcUser.c **** *  ADC_RETURN_STATUS        -> Immediately returns conversion result status
 439:Generated_Source\PSoC4/adcUser.c **** *  ADC_WAIT_FOR_RESULT      -> Does not return until ADC complete
 440:Generated_Source\PSoC4/adcUser.c **** *  ADC_RETURN_STATUS_INJ    -> Immediately returns conversion result status
 441:Generated_Source\PSoC4/adcUser.c **** *                              for injection channel
 442:Generated_Source\PSoC4/adcUser.c **** *  ADC_WAIT_FOR_RESULT_INJ  -> Does not return until ADC completes injection
 443:Generated_Source\PSoC4/adcUser.c **** *                              channel conversion
 444:Generated_Source\PSoC4/adcUser.c **** *
 445:Generated_Source\PSoC4/adcUser.c **** * Return:
 446:Generated_Source\PSoC4/adcUser.c **** *  If a non-zero value is returned, the last conversion or scan has completed.
 447:Generated_Source\PSoC4/adcUser.c **** *  If the returned value is zero, the ADC is still in the process of a scan.
 448:Generated_Source\PSoC4/adcUser.c **** *
 449:Generated_Source\PSoC4/adcUser.c **** *******************************************************************************/
 450:Generated_Source\PSoC4/adcUser.c **** uint32 adcUser_IsEndConversion(uint32 retMode)
 451:Generated_Source\PSoC4/adcUser.c **** {
 371              		.loc 1 451 0
 372              		.cfi_startproc
 373              		@ args = 0, pretend = 0, frame = 0
 374              		@ frame_needed = 0, uses_anonymous_args = 0
 375              		@ link register save eliminated.
 376              	.LVL14:
 377 0000 0200     		movs	r2, r0
 378              	.LVL15:
 452:Generated_Source\PSoC4/adcUser.c ****     uint32 status = 0u;
 453:Generated_Source\PSoC4/adcUser.c **** 
 454:Generated_Source\PSoC4/adcUser.c ****     if((retMode & (adcUser_RETURN_STATUS | adcUser_WAIT_FOR_RESULT)) != 0u)
 379              		.loc 1 454 0
 380 0002 8307     		lsls	r3, r0, #30
 381 0004 0CD0     		beq	.L29
 382              	.LVL16:
 383              	.L28:
 455:Generated_Source\PSoC4/adcUser.c ****     {
 456:Generated_Source\PSoC4/adcUser.c ****         do
 457:Generated_Source\PSoC4/adcUser.c ****         {
 458:Generated_Source\PSoC4/adcUser.c ****             status = adcUser_SAR_INTR_REG & adcUser_EOS_MASK;
 384              		.loc 1 458 0 discriminator 2
 385 0006 074B     		ldr	r3, .L30
 386 0008 1B68     		ldr	r3, [r3]
 387 000a 0120     		movs	r0, #1
ARM GAS  C:\Users\NGUYEN~1\AppData\Local\Temp\ccCvhWbK.s 			page 16


 388 000c 1840     		ands	r0, r3
 389              	.LVL17:
 459:Generated_Source\PSoC4/adcUser.c ****         }while((status == 0u) && ((retMode & adcUser_WAIT_FOR_RESULT) != 0u));
 390              		.loc 1 459 0 discriminator 2
 391 000e 01D1     		bne	.L27
 392              		.loc 1 459 0 is_stmt 0 discriminator 1
 393 0010 9307     		lsls	r3, r2, #30
 394 0012 F8D4     		bmi	.L28
 395              	.L27:
 460:Generated_Source\PSoC4/adcUser.c **** 
 461:Generated_Source\PSoC4/adcUser.c ****         if(status != 0u)
 396              		.loc 1 461 0 is_stmt 1
 397 0014 0028     		cmp	r0, #0
 398 0016 04D0     		beq	.L26
 462:Generated_Source\PSoC4/adcUser.c ****         {
 463:Generated_Source\PSoC4/adcUser.c ****             /* Clear EOS bit */
 464:Generated_Source\PSoC4/adcUser.c ****             adcUser_SAR_INTR_REG = adcUser_EOS_MASK;
 399              		.loc 1 464 0
 400 0018 0122     		movs	r2, #1
 401              	.LVL18:
 402 001a 024B     		ldr	r3, .L30
 403 001c 1A60     		str	r2, [r3]
 404 001e 00E0     		b	.L26
 405              	.LVL19:
 406              	.L29:
 452:Generated_Source\PSoC4/adcUser.c **** 
 407              		.loc 1 452 0
 408 0020 0020     		movs	r0, #0
 409              	.LVL20:
 410              	.L26:
 465:Generated_Source\PSoC4/adcUser.c ****         }
 466:Generated_Source\PSoC4/adcUser.c ****     }
 467:Generated_Source\PSoC4/adcUser.c **** 
 468:Generated_Source\PSoC4/adcUser.c ****     #if(adcUser_INJ_CHANNEL_ENABLED)
 469:Generated_Source\PSoC4/adcUser.c ****         if((retMode & (adcUser_RETURN_STATUS_INJ | adcUser_WAIT_FOR_RESULT_INJ)) != 0u)
 470:Generated_Source\PSoC4/adcUser.c ****         {
 471:Generated_Source\PSoC4/adcUser.c ****             do
 472:Generated_Source\PSoC4/adcUser.c ****             {
 473:Generated_Source\PSoC4/adcUser.c ****                 status |= adcUser_SAR_INTR_REG & adcUser_INJ_EOC_MASK;
 474:Generated_Source\PSoC4/adcUser.c ****             }while(((status & adcUser_INJ_EOC_MASK) == 0u) &&
 475:Generated_Source\PSoC4/adcUser.c ****                    ((retMode & adcUser_WAIT_FOR_RESULT_INJ) != 0u));
 476:Generated_Source\PSoC4/adcUser.c **** 
 477:Generated_Source\PSoC4/adcUser.c ****             if((status & adcUser_INJ_EOC_MASK) != 0u)
 478:Generated_Source\PSoC4/adcUser.c ****             {
 479:Generated_Source\PSoC4/adcUser.c ****                 /* Clear Injection EOS bit */
 480:Generated_Source\PSoC4/adcUser.c ****                 adcUser_SAR_INTR_REG = adcUser_INJ_EOC_MASK;
 481:Generated_Source\PSoC4/adcUser.c ****             }
 482:Generated_Source\PSoC4/adcUser.c ****         }
 483:Generated_Source\PSoC4/adcUser.c ****     #endif /* adcUser_INJ_CHANNEL_ENABLED */
 484:Generated_Source\PSoC4/adcUser.c **** 
 485:Generated_Source\PSoC4/adcUser.c ****     return (status);
 486:Generated_Source\PSoC4/adcUser.c **** }
 411              		.loc 1 486 0
 412              		@ sp needed
 413 0022 7047     		bx	lr
 414              	.L31:
 415              		.align	2
ARM GAS  C:\Users\NGUYEN~1\AppData\Local\Temp\ccCvhWbK.s 			page 17


 416              	.L30:
 417 0024 10021A40 		.word	1075446288
 418              		.cfi_endproc
 419              	.LFE6:
 420              		.size	adcUser_IsEndConversion, .-adcUser_IsEndConversion
 421              		.section	.text.adcUser_GetResult16,"ax",%progbits
 422              		.align	2
 423              		.global	adcUser_GetResult16
 424              		.code	16
 425              		.thumb_func
 426              		.type	adcUser_GetResult16, %function
 427              	adcUser_GetResult16:
 428              	.LFB7:
 487:Generated_Source\PSoC4/adcUser.c **** 
 488:Generated_Source\PSoC4/adcUser.c **** 
 489:Generated_Source\PSoC4/adcUser.c **** /*******************************************************************************
 490:Generated_Source\PSoC4/adcUser.c **** * Function Name: adcUser_GetResult16
 491:Generated_Source\PSoC4/adcUser.c **** ********************************************************************************
 492:Generated_Source\PSoC4/adcUser.c **** *
 493:Generated_Source\PSoC4/adcUser.c **** * Summary:
 494:Generated_Source\PSoC4/adcUser.c **** *  Gets the data available in the SAR DATA register.
 495:Generated_Source\PSoC4/adcUser.c **** *
 496:Generated_Source\PSoC4/adcUser.c **** * Parameters:
 497:Generated_Source\PSoC4/adcUser.c **** *  chan: The ADC channel in which to return the result. The first channel
 498:Generated_Source\PSoC4/adcUser.c **** *  is 0 and the injection channel if enabled is the number of valid channels.
 499:Generated_Source\PSoC4/adcUser.c **** *
 500:Generated_Source\PSoC4/adcUser.c **** * Return:
 501:Generated_Source\PSoC4/adcUser.c **** *  Returns converted data as a signed 16-bit integer
 502:Generated_Source\PSoC4/adcUser.c **** *
 503:Generated_Source\PSoC4/adcUser.c **** *******************************************************************************/
 504:Generated_Source\PSoC4/adcUser.c **** int16 adcUser_GetResult16(uint32 chan)
 505:Generated_Source\PSoC4/adcUser.c **** {
 429              		.loc 1 505 0
 430              		.cfi_startproc
 431              		@ args = 0, pretend = 0, frame = 0
 432              		@ frame_needed = 0, uses_anonymous_args = 0
 433              	.LVL21:
 434 0000 10B5     		push	{r4, lr}
 435              		.cfi_def_cfa_offset 8
 436              		.cfi_offset 4, -8
 437              		.cfi_offset 14, -4
 438 0002 041E     		subs	r4, r0, #0
 506:Generated_Source\PSoC4/adcUser.c ****     uint32 result;
 507:Generated_Source\PSoC4/adcUser.c **** 
 508:Generated_Source\PSoC4/adcUser.c ****     /* Halt CPU in debug mode if channel is out of valid range */
 509:Generated_Source\PSoC4/adcUser.c ****     CYASSERT(chan < adcUser_TOTAL_CHANNELS_NUM);
 439              		.loc 1 509 0
 440 0004 02D0     		beq	.L33
 441              		.loc 1 509 0 is_stmt 0 discriminator 1
 442 0006 0020     		movs	r0, #0
 443              	.LVL22:
 444 0008 FFF7FEFF 		bl	CyHalt
 445              	.LVL23:
 446              	.L33:
 510:Generated_Source\PSoC4/adcUser.c **** 
 511:Generated_Source\PSoC4/adcUser.c ****     if(chan < adcUser_SEQUENCED_CHANNELS_NUM)
 447              		.loc 1 511 0 is_stmt 1
ARM GAS  C:\Users\NGUYEN~1\AppData\Local\Temp\ccCvhWbK.s 			page 18


 448 000c 002C     		cmp	r4, #0
 449 000e 07D1     		bne	.L35
 512:Generated_Source\PSoC4/adcUser.c ****     {
 513:Generated_Source\PSoC4/adcUser.c ****         result = CY_GET_REG32((reg32 *)(adcUser_SAR_CHAN_RESULT_IND + (uint32)(chan << 2u))) &
 450              		.loc 1 513 0
 451 0010 A400     		lsls	r4, r4, #2
 452              	.LVL24:
 453 0012 054B     		ldr	r3, .L36
 454 0014 9C46     		mov	ip, r3
 455 0016 6444     		add	r4, r4, ip
 456 0018 2068     		ldr	r0, [r4]
 457 001a 0004     		lsls	r0, r0, #16
 458 001c 000C     		lsrs	r0, r0, #16
 459              	.LVL25:
 460 001e 00E0     		b	.L34
 461              	.LVL26:
 462              	.L35:
 514:Generated_Source\PSoC4/adcUser.c ****                 adcUser_RESULT_MASK;
 515:Generated_Source\PSoC4/adcUser.c ****     }
 516:Generated_Source\PSoC4/adcUser.c ****     else
 517:Generated_Source\PSoC4/adcUser.c ****     {
 518:Generated_Source\PSoC4/adcUser.c ****         #if(adcUser_INJ_CHANNEL_ENABLED)
 519:Generated_Source\PSoC4/adcUser.c ****             result = adcUser_SAR_INJ_RESULT_REG & adcUser_RESULT_MASK;
 520:Generated_Source\PSoC4/adcUser.c ****         #else
 521:Generated_Source\PSoC4/adcUser.c ****             result = 0u;
 463              		.loc 1 521 0
 464 0020 0020     		movs	r0, #0
 465              	.LVL27:
 466              	.L34:
 522:Generated_Source\PSoC4/adcUser.c ****         #endif /* adcUser_INJ_CHANNEL_ENABLED */
 523:Generated_Source\PSoC4/adcUser.c ****     }
 524:Generated_Source\PSoC4/adcUser.c **** 
 525:Generated_Source\PSoC4/adcUser.c ****     return ( (int16)result );
 467              		.loc 1 525 0
 468 0022 00B2     		sxth	r0, r0
 469              	.LVL28:
 526:Generated_Source\PSoC4/adcUser.c **** }
 470              		.loc 1 526 0
 471              		@ sp needed
 472 0024 10BD     		pop	{r4, pc}
 473              	.L37:
 474 0026 C046     		.align	2
 475              	.L36:
 476 0028 80011A40 		.word	1075446144
 477              		.cfi_endproc
 478              	.LFE7:
 479              		.size	adcUser_GetResult16, .-adcUser_GetResult16
 480              		.section	.text.adcUser_SetChanMask,"ax",%progbits
 481              		.align	2
 482              		.global	adcUser_SetChanMask
 483              		.code	16
 484              		.thumb_func
 485              		.type	adcUser_SetChanMask, %function
 486              	adcUser_SetChanMask:
 487              	.LFB8:
 527:Generated_Source\PSoC4/adcUser.c **** 
 528:Generated_Source\PSoC4/adcUser.c **** 
ARM GAS  C:\Users\NGUYEN~1\AppData\Local\Temp\ccCvhWbK.s 			page 19


 529:Generated_Source\PSoC4/adcUser.c **** /*******************************************************************************
 530:Generated_Source\PSoC4/adcUser.c **** * Function Name: adcUser_SetChanMask
 531:Generated_Source\PSoC4/adcUser.c **** ********************************************************************************
 532:Generated_Source\PSoC4/adcUser.c **** *
 533:Generated_Source\PSoC4/adcUser.c **** * Summary:
 534:Generated_Source\PSoC4/adcUser.c **** *  Sets the channel enable mask.
 535:Generated_Source\PSoC4/adcUser.c **** *
 536:Generated_Source\PSoC4/adcUser.c **** * Parameters:
 537:Generated_Source\PSoC4/adcUser.c **** *  mask: Sets which channels that will be
 538:Generated_Source\PSoC4/adcUser.c **** *  scanned. Setting bits for channels that do not exist will have no
 539:Generated_Source\PSoC4/adcUser.c **** *  effect. For example, if only 6 channels were enabled, setting a
 540:Generated_Source\PSoC4/adcUser.c **** *  mask of 0x0103 would only enable the last two channels (0 and 1).
 541:Generated_Source\PSoC4/adcUser.c **** *  This API will not enable the injection channel.
 542:Generated_Source\PSoC4/adcUser.c **** *  Examples: If the component is setup to sequence through 8
 543:Generated_Source\PSoC4/adcUser.c **** *  channels, a mask of 0x000F would enable channels 0, 1, 2, and 3.
 544:Generated_Source\PSoC4/adcUser.c **** *
 545:Generated_Source\PSoC4/adcUser.c **** * Return:
 546:Generated_Source\PSoC4/adcUser.c **** *  None.
 547:Generated_Source\PSoC4/adcUser.c **** *
 548:Generated_Source\PSoC4/adcUser.c **** *******************************************************************************/
 549:Generated_Source\PSoC4/adcUser.c **** void adcUser_SetChanMask(uint32 mask)
 550:Generated_Source\PSoC4/adcUser.c **** {
 488              		.loc 1 550 0
 489              		.cfi_startproc
 490              		@ args = 0, pretend = 0, frame = 0
 491              		@ frame_needed = 0, uses_anonymous_args = 0
 492              		@ link register save eliminated.
 493              	.LVL29:
 551:Generated_Source\PSoC4/adcUser.c ****     adcUser_SAR_CHAN_EN_REG = mask & adcUser_MAX_CHANNELS_EN_MASK;
 494              		.loc 1 551 0
 495 0000 0123     		movs	r3, #1
 496 0002 1840     		ands	r0, r3
 497              	.LVL30:
 498 0004 014B     		ldr	r3, .L39
 499 0006 1860     		str	r0, [r3]
 552:Generated_Source\PSoC4/adcUser.c **** }
 500              		.loc 1 552 0
 501              		@ sp needed
 502 0008 7047     		bx	lr
 503              	.L40:
 504 000a C046     		.align	2
 505              	.L39:
 506 000c 20001A40 		.word	1075445792
 507              		.cfi_endproc
 508              	.LFE8:
 509              		.size	adcUser_SetChanMask, .-adcUser_SetChanMask
 510              		.section	.text.adcUser_SetLowLimit,"ax",%progbits
 511              		.align	2
 512              		.global	adcUser_SetLowLimit
 513              		.code	16
 514              		.thumb_func
 515              		.type	adcUser_SetLowLimit, %function
 516              	adcUser_SetLowLimit:
 517              	.LFB9:
 553:Generated_Source\PSoC4/adcUser.c **** 
 554:Generated_Source\PSoC4/adcUser.c **** #if(adcUser_INJ_CHANNEL_ENABLED)
 555:Generated_Source\PSoC4/adcUser.c **** 
ARM GAS  C:\Users\NGUYEN~1\AppData\Local\Temp\ccCvhWbK.s 			page 20


 556:Generated_Source\PSoC4/adcUser.c **** 
 557:Generated_Source\PSoC4/adcUser.c ****     /*******************************************************************************
 558:Generated_Source\PSoC4/adcUser.c ****     * Function Name: adcUser_EnableInjection
 559:Generated_Source\PSoC4/adcUser.c ****     ********************************************************************************
 560:Generated_Source\PSoC4/adcUser.c ****     *
 561:Generated_Source\PSoC4/adcUser.c ****     * Summary:
 562:Generated_Source\PSoC4/adcUser.c ****     *  Enables the injection channel for the next scan only.
 563:Generated_Source\PSoC4/adcUser.c ****     *
 564:Generated_Source\PSoC4/adcUser.c ****     * Parameters:
 565:Generated_Source\PSoC4/adcUser.c ****     *  None.
 566:Generated_Source\PSoC4/adcUser.c ****     *
 567:Generated_Source\PSoC4/adcUser.c ****     * Return:
 568:Generated_Source\PSoC4/adcUser.c ****     *  None.
 569:Generated_Source\PSoC4/adcUser.c ****     *
 570:Generated_Source\PSoC4/adcUser.c ****     *******************************************************************************/
 571:Generated_Source\PSoC4/adcUser.c ****     void adcUser_EnableInjection(void)
 572:Generated_Source\PSoC4/adcUser.c ****     {
 573:Generated_Source\PSoC4/adcUser.c ****         adcUser_SAR_INJ_CHAN_CONFIG_REG |= adcUser_INJ_CHAN_EN;
 574:Generated_Source\PSoC4/adcUser.c ****     }
 575:Generated_Source\PSoC4/adcUser.c **** 
 576:Generated_Source\PSoC4/adcUser.c **** #endif /* adcUser_INJ_CHANNEL_ENABLED */
 577:Generated_Source\PSoC4/adcUser.c **** 
 578:Generated_Source\PSoC4/adcUser.c **** 
 579:Generated_Source\PSoC4/adcUser.c **** /*******************************************************************************
 580:Generated_Source\PSoC4/adcUser.c **** * Function Name: adcUser_SetLowLimit
 581:Generated_Source\PSoC4/adcUser.c **** ********************************************************************************
 582:Generated_Source\PSoC4/adcUser.c **** *
 583:Generated_Source\PSoC4/adcUser.c **** * Summary:
 584:Generated_Source\PSoC4/adcUser.c **** *  Sets the low limit parameter for a limit condition.
 585:Generated_Source\PSoC4/adcUser.c **** *
 586:Generated_Source\PSoC4/adcUser.c **** * Parameters:
 587:Generated_Source\PSoC4/adcUser.c **** *  lowLimit: The low limit for a limit condition.
 588:Generated_Source\PSoC4/adcUser.c **** *
 589:Generated_Source\PSoC4/adcUser.c **** * Return:
 590:Generated_Source\PSoC4/adcUser.c **** *  None.
 591:Generated_Source\PSoC4/adcUser.c **** *
 592:Generated_Source\PSoC4/adcUser.c **** *******************************************************************************/
 593:Generated_Source\PSoC4/adcUser.c **** void adcUser_SetLowLimit(uint32 lowLimit)
 594:Generated_Source\PSoC4/adcUser.c **** {
 518              		.loc 1 594 0
 519              		.cfi_startproc
 520              		@ args = 0, pretend = 0, frame = 0
 521              		@ frame_needed = 0, uses_anonymous_args = 0
 522              		@ link register save eliminated.
 523              	.LVL31:
 595:Generated_Source\PSoC4/adcUser.c ****     adcUser_SAR_RANGE_THRES_REG &= (uint32)(~adcUser_RANGE_LOW_MASK);
 524              		.loc 1 595 0
 525 0000 054A     		ldr	r2, .L42
 526 0002 1368     		ldr	r3, [r2]
 527 0004 1B0C     		lsrs	r3, r3, #16
 528 0006 1B04     		lsls	r3, r3, #16
 529 0008 1360     		str	r3, [r2]
 596:Generated_Source\PSoC4/adcUser.c ****     adcUser_SAR_RANGE_THRES_REG |= lowLimit & adcUser_RANGE_LOW_MASK;
 530              		.loc 1 596 0
 531 000a 1368     		ldr	r3, [r2]
 532 000c 0004     		lsls	r0, r0, #16
 533              	.LVL32:
ARM GAS  C:\Users\NGUYEN~1\AppData\Local\Temp\ccCvhWbK.s 			page 21


 534 000e 000C     		lsrs	r0, r0, #16
 535 0010 1843     		orrs	r0, r3
 536 0012 1060     		str	r0, [r2]
 597:Generated_Source\PSoC4/adcUser.c **** }
 537              		.loc 1 597 0
 538              		@ sp needed
 539 0014 7047     		bx	lr
 540              	.L43:
 541 0016 C046     		.align	2
 542              	.L42:
 543 0018 18001A40 		.word	1075445784
 544              		.cfi_endproc
 545              	.LFE9:
 546              		.size	adcUser_SetLowLimit, .-adcUser_SetLowLimit
 547              		.section	.text.adcUser_SetHighLimit,"ax",%progbits
 548              		.align	2
 549              		.global	adcUser_SetHighLimit
 550              		.code	16
 551              		.thumb_func
 552              		.type	adcUser_SetHighLimit, %function
 553              	adcUser_SetHighLimit:
 554              	.LFB10:
 598:Generated_Source\PSoC4/adcUser.c **** 
 599:Generated_Source\PSoC4/adcUser.c **** 
 600:Generated_Source\PSoC4/adcUser.c **** /*******************************************************************************
 601:Generated_Source\PSoC4/adcUser.c **** * Function Name: adcUser_SetHighLimit
 602:Generated_Source\PSoC4/adcUser.c **** ********************************************************************************
 603:Generated_Source\PSoC4/adcUser.c **** *
 604:Generated_Source\PSoC4/adcUser.c **** * Summary:
 605:Generated_Source\PSoC4/adcUser.c **** *  Sets the low limit parameter for a limit condition.
 606:Generated_Source\PSoC4/adcUser.c **** *
 607:Generated_Source\PSoC4/adcUser.c **** * Parameters:
 608:Generated_Source\PSoC4/adcUser.c **** *  highLimit: The high limit for a limit condition.
 609:Generated_Source\PSoC4/adcUser.c **** *
 610:Generated_Source\PSoC4/adcUser.c **** * Return:
 611:Generated_Source\PSoC4/adcUser.c **** *  None.
 612:Generated_Source\PSoC4/adcUser.c **** *
 613:Generated_Source\PSoC4/adcUser.c **** *******************************************************************************/
 614:Generated_Source\PSoC4/adcUser.c **** void adcUser_SetHighLimit(uint32 highLimit)
 615:Generated_Source\PSoC4/adcUser.c **** {
 555              		.loc 1 615 0
 556              		.cfi_startproc
 557              		@ args = 0, pretend = 0, frame = 0
 558              		@ frame_needed = 0, uses_anonymous_args = 0
 559              		@ link register save eliminated.
 560              	.LVL33:
 616:Generated_Source\PSoC4/adcUser.c ****     adcUser_SAR_RANGE_THRES_REG &= (uint32)(~adcUser_RANGE_HIGH_MASK);
 561              		.loc 1 616 0
 562 0000 044A     		ldr	r2, .L45
 563 0002 1368     		ldr	r3, [r2]
 564 0004 1B04     		lsls	r3, r3, #16
 565 0006 1B0C     		lsrs	r3, r3, #16
 566 0008 1360     		str	r3, [r2]
 617:Generated_Source\PSoC4/adcUser.c ****     adcUser_SAR_RANGE_THRES_REG |= (uint32)(highLimit << adcUser_RANGE_HIGH_OFFSET);
 567              		.loc 1 617 0
 568 000a 1368     		ldr	r3, [r2]
 569 000c 0004     		lsls	r0, r0, #16
ARM GAS  C:\Users\NGUYEN~1\AppData\Local\Temp\ccCvhWbK.s 			page 22


 570              	.LVL34:
 571 000e 1843     		orrs	r0, r3
 572 0010 1060     		str	r0, [r2]
 618:Generated_Source\PSoC4/adcUser.c **** }
 573              		.loc 1 618 0
 574              		@ sp needed
 575 0012 7047     		bx	lr
 576              	.L46:
 577              		.align	2
 578              	.L45:
 579 0014 18001A40 		.word	1075445784
 580              		.cfi_endproc
 581              	.LFE10:
 582              		.size	adcUser_SetHighLimit, .-adcUser_SetHighLimit
 583              		.section	.text.adcUser_SetLimitMask,"ax",%progbits
 584              		.align	2
 585              		.global	adcUser_SetLimitMask
 586              		.code	16
 587              		.thumb_func
 588              		.type	adcUser_SetLimitMask, %function
 589              	adcUser_SetLimitMask:
 590              	.LFB11:
 619:Generated_Source\PSoC4/adcUser.c **** 
 620:Generated_Source\PSoC4/adcUser.c **** 
 621:Generated_Source\PSoC4/adcUser.c **** /*******************************************************************************
 622:Generated_Source\PSoC4/adcUser.c **** * Function Name: adcUser_SetLimitMask
 623:Generated_Source\PSoC4/adcUser.c **** ********************************************************************************
 624:Generated_Source\PSoC4/adcUser.c **** *
 625:Generated_Source\PSoC4/adcUser.c **** * Summary:
 626:Generated_Source\PSoC4/adcUser.c **** *  Sets the channel limit condition mask.
 627:Generated_Source\PSoC4/adcUser.c **** *
 628:Generated_Source\PSoC4/adcUser.c **** * Parameters:
 629:Generated_Source\PSoC4/adcUser.c **** *  mask: Sets which channels that may cause a
 630:Generated_Source\PSoC4/adcUser.c **** *  limit condition interrupt. Setting bits for channels that do not exist
 631:Generated_Source\PSoC4/adcUser.c **** *  will have no effect. For example, if only 6 channels were enabled,
 632:Generated_Source\PSoC4/adcUser.c **** *  setting a mask of 0x0103 would only enable the last two channels (0 and 1).
 633:Generated_Source\PSoC4/adcUser.c **** *
 634:Generated_Source\PSoC4/adcUser.c **** * Return:
 635:Generated_Source\PSoC4/adcUser.c **** *  None.
 636:Generated_Source\PSoC4/adcUser.c **** *
 637:Generated_Source\PSoC4/adcUser.c **** *******************************************************************************/
 638:Generated_Source\PSoC4/adcUser.c **** void adcUser_SetLimitMask(uint32 mask)
 639:Generated_Source\PSoC4/adcUser.c **** {
 591              		.loc 1 639 0
 592              		.cfi_startproc
 593              		@ args = 0, pretend = 0, frame = 0
 594              		@ frame_needed = 0, uses_anonymous_args = 0
 595              		@ link register save eliminated.
 596              	.LVL35:
 640:Generated_Source\PSoC4/adcUser.c ****     adcUser_SAR_RANGE_INTR_MASK_REG = mask & adcUser_MAX_CHANNELS_EN_MASK;
 597              		.loc 1 640 0
 598 0000 0123     		movs	r3, #1
 599 0002 1840     		ands	r0, r3
 600              	.LVL36:
 601 0004 014B     		ldr	r3, .L48
 602 0006 1860     		str	r0, [r3]
 641:Generated_Source\PSoC4/adcUser.c **** }
ARM GAS  C:\Users\NGUYEN~1\AppData\Local\Temp\ccCvhWbK.s 			page 23


 603              		.loc 1 641 0
 604              		@ sp needed
 605 0008 7047     		bx	lr
 606              	.L49:
 607 000a C046     		.align	2
 608              	.L48:
 609 000c 38021A40 		.word	1075446328
 610              		.cfi_endproc
 611              	.LFE11:
 612              		.size	adcUser_SetLimitMask, .-adcUser_SetLimitMask
 613              		.section	.text.adcUser_SetSatMask,"ax",%progbits
 614              		.align	2
 615              		.global	adcUser_SetSatMask
 616              		.code	16
 617              		.thumb_func
 618              		.type	adcUser_SetSatMask, %function
 619              	adcUser_SetSatMask:
 620              	.LFB12:
 642:Generated_Source\PSoC4/adcUser.c **** 
 643:Generated_Source\PSoC4/adcUser.c **** 
 644:Generated_Source\PSoC4/adcUser.c **** /*******************************************************************************
 645:Generated_Source\PSoC4/adcUser.c **** * Function Name: adcUser_SetSatMask
 646:Generated_Source\PSoC4/adcUser.c **** ********************************************************************************
 647:Generated_Source\PSoC4/adcUser.c **** *
 648:Generated_Source\PSoC4/adcUser.c **** * Summary:
 649:Generated_Source\PSoC4/adcUser.c **** *  Sets the channel saturation event mask.
 650:Generated_Source\PSoC4/adcUser.c **** *
 651:Generated_Source\PSoC4/adcUser.c **** * Parameters:
 652:Generated_Source\PSoC4/adcUser.c **** *  mask: Sets which channels that may cause a
 653:Generated_Source\PSoC4/adcUser.c **** *  saturation event interrupt. Setting bits for channels that do not exist
 654:Generated_Source\PSoC4/adcUser.c **** *  will have no effect. For example, if only 8 channels were enabled,
 655:Generated_Source\PSoC4/adcUser.c **** *  setting a mask of 0x01C0 would only enable two channels (6 and 7).
 656:Generated_Source\PSoC4/adcUser.c **** *
 657:Generated_Source\PSoC4/adcUser.c **** * Return:
 658:Generated_Source\PSoC4/adcUser.c **** *  None.
 659:Generated_Source\PSoC4/adcUser.c **** *
 660:Generated_Source\PSoC4/adcUser.c **** *******************************************************************************/
 661:Generated_Source\PSoC4/adcUser.c **** void adcUser_SetSatMask(uint32 mask)
 662:Generated_Source\PSoC4/adcUser.c **** {
 621              		.loc 1 662 0
 622              		.cfi_startproc
 623              		@ args = 0, pretend = 0, frame = 0
 624              		@ frame_needed = 0, uses_anonymous_args = 0
 625              		@ link register save eliminated.
 626              	.LVL37:
 663:Generated_Source\PSoC4/adcUser.c ****     adcUser_SAR_SATURATE_INTR_MASK_REG = mask & adcUser_MAX_CHANNELS_EN_MASK;
 627              		.loc 1 663 0
 628 0000 0123     		movs	r3, #1
 629 0002 1840     		ands	r0, r3
 630              	.LVL38:
 631 0004 014B     		ldr	r3, .L51
 632 0006 1860     		str	r0, [r3]
 664:Generated_Source\PSoC4/adcUser.c **** }
 633              		.loc 1 664 0
 634              		@ sp needed
 635 0008 7047     		bx	lr
 636              	.L52:
ARM GAS  C:\Users\NGUYEN~1\AppData\Local\Temp\ccCvhWbK.s 			page 24


 637 000a C046     		.align	2
 638              	.L51:
 639 000c 28021A40 		.word	1075446312
 640              		.cfi_endproc
 641              	.LFE12:
 642              		.size	adcUser_SetSatMask, .-adcUser_SetSatMask
 643              		.section	.text.adcUser_SetOffset,"ax",%progbits
 644              		.align	2
 645              		.global	adcUser_SetOffset
 646              		.code	16
 647              		.thumb_func
 648              		.type	adcUser_SetOffset, %function
 649              	adcUser_SetOffset:
 650              	.LFB13:
 665:Generated_Source\PSoC4/adcUser.c **** 
 666:Generated_Source\PSoC4/adcUser.c **** 
 667:Generated_Source\PSoC4/adcUser.c **** /*******************************************************************************
 668:Generated_Source\PSoC4/adcUser.c **** * Function Name: adcUser_SetOffset
 669:Generated_Source\PSoC4/adcUser.c **** ********************************************************************************
 670:Generated_Source\PSoC4/adcUser.c **** *
 671:Generated_Source\PSoC4/adcUser.c **** * Summary:
 672:Generated_Source\PSoC4/adcUser.c **** *   Description: Sets the ADC offset which is used by the functions
 673:Generated_Source\PSoC4/adcUser.c **** *   ADC_CountsTo_uVolts, ADC_CountsTo_mVolts and ADC_CountsTo_Volts
 674:Generated_Source\PSoC4/adcUser.c **** *   to substract the offset from the given reading
 675:Generated_Source\PSoC4/adcUser.c **** *   before calculating the voltage conversion.
 676:Generated_Source\PSoC4/adcUser.c **** *
 677:Generated_Source\PSoC4/adcUser.c **** * Parameters:
 678:Generated_Source\PSoC4/adcUser.c **** *  chan: ADC channel number.
 679:Generated_Source\PSoC4/adcUser.c **** *  offset: This value is a measured value when the
 680:Generated_Source\PSoC4/adcUser.c **** *          inputs are shorted or connected to the same input voltage.
 681:Generated_Source\PSoC4/adcUser.c **** *
 682:Generated_Source\PSoC4/adcUser.c **** * Return:
 683:Generated_Source\PSoC4/adcUser.c **** *  None.
 684:Generated_Source\PSoC4/adcUser.c **** *
 685:Generated_Source\PSoC4/adcUser.c **** * Global variables:
 686:Generated_Source\PSoC4/adcUser.c **** *  adcUser_Offset:  Modified to set the user provided offset.
 687:Generated_Source\PSoC4/adcUser.c **** *
 688:Generated_Source\PSoC4/adcUser.c **** *******************************************************************************/
 689:Generated_Source\PSoC4/adcUser.c **** void adcUser_SetOffset(uint32 chan, int16 offset)
 690:Generated_Source\PSoC4/adcUser.c **** {
 651              		.loc 1 690 0
 652              		.cfi_startproc
 653              		@ args = 0, pretend = 0, frame = 0
 654              		@ frame_needed = 0, uses_anonymous_args = 0
 655              	.LVL39:
 656 0000 70B5     		push	{r4, r5, r6, lr}
 657              		.cfi_def_cfa_offset 16
 658              		.cfi_offset 4, -16
 659              		.cfi_offset 5, -12
 660              		.cfi_offset 6, -8
 661              		.cfi_offset 14, -4
 662 0002 0400     		movs	r4, r0
 663 0004 0D00     		movs	r5, r1
 691:Generated_Source\PSoC4/adcUser.c ****     /* Halt CPU in debug mode if channel is out of valid range */
 692:Generated_Source\PSoC4/adcUser.c ****     CYASSERT(chan < adcUser_TOTAL_CHANNELS_NUM);
 664              		.loc 1 692 0
 665 0006 0028     		cmp	r0, #0
ARM GAS  C:\Users\NGUYEN~1\AppData\Local\Temp\ccCvhWbK.s 			page 25


 666 0008 02D0     		beq	.L54
 667              		.loc 1 692 0 is_stmt 0 discriminator 1
 668 000a 0020     		movs	r0, #0
 669              	.LVL40:
 670 000c FFF7FEFF 		bl	CyHalt
 671              	.LVL41:
 672              	.L54:
 693:Generated_Source\PSoC4/adcUser.c **** 
 694:Generated_Source\PSoC4/adcUser.c ****     adcUser_offset[chan] = offset;
 673              		.loc 1 694 0 is_stmt 1
 674 0010 6400     		lsls	r4, r4, #1
 675              	.LVL42:
 676 0012 014B     		ldr	r3, .L55
 677 0014 E552     		strh	r5, [r4, r3]
 695:Generated_Source\PSoC4/adcUser.c **** }
 678              		.loc 1 695 0
 679              		@ sp needed
 680 0016 70BD     		pop	{r4, r5, r6, pc}
 681              	.L56:
 682              		.align	2
 683              	.L55:
 684 0018 00000000 		.word	adcUser_offset
 685              		.cfi_endproc
 686              	.LFE13:
 687              		.size	adcUser_SetOffset, .-adcUser_SetOffset
 688              		.section	.text.adcUser_SetGain,"ax",%progbits
 689              		.align	2
 690              		.global	adcUser_SetGain
 691              		.code	16
 692              		.thumb_func
 693              		.type	adcUser_SetGain, %function
 694              	adcUser_SetGain:
 695              	.LFB14:
 696:Generated_Source\PSoC4/adcUser.c **** 
 697:Generated_Source\PSoC4/adcUser.c **** 
 698:Generated_Source\PSoC4/adcUser.c **** /*******************************************************************************
 699:Generated_Source\PSoC4/adcUser.c **** * Function Name: adcUser_SetGain
 700:Generated_Source\PSoC4/adcUser.c **** ********************************************************************************
 701:Generated_Source\PSoC4/adcUser.c **** *
 702:Generated_Source\PSoC4/adcUser.c **** * Summary:
 703:Generated_Source\PSoC4/adcUser.c **** *  Description: Sets the ADC gain in counts per 10 volt for the voltage
 704:Generated_Source\PSoC4/adcUser.c **** *  conversion functions below. This value is set by default by the
 705:Generated_Source\PSoC4/adcUser.c **** *  reference and input range settings. It should only be used to further
 706:Generated_Source\PSoC4/adcUser.c **** *  calibrate the ADC with a known input or if an external reference is
 707:Generated_Source\PSoC4/adcUser.c **** *  used. Affects the ADC_CountsTo_uVolts, ADC_CountsTo_mVolts
 708:Generated_Source\PSoC4/adcUser.c **** *  and ADC_CountsTo_Volts functions by supplying the correct
 709:Generated_Source\PSoC4/adcUser.c **** *  conversion between ADC counts and voltage.
 710:Generated_Source\PSoC4/adcUser.c **** *
 711:Generated_Source\PSoC4/adcUser.c **** * Parameters:
 712:Generated_Source\PSoC4/adcUser.c **** *  chan: ADC channel number.
 713:Generated_Source\PSoC4/adcUser.c **** *  adcGain: ADC gain in counts per 10 volts.
 714:Generated_Source\PSoC4/adcUser.c **** *
 715:Generated_Source\PSoC4/adcUser.c **** * Return:
 716:Generated_Source\PSoC4/adcUser.c **** *  None.
 717:Generated_Source\PSoC4/adcUser.c **** *
 718:Generated_Source\PSoC4/adcUser.c **** * Global variables:
 719:Generated_Source\PSoC4/adcUser.c **** *  adcUser_CountsPer10Volt:  modified to set the ADC gain in counts
ARM GAS  C:\Users\NGUYEN~1\AppData\Local\Temp\ccCvhWbK.s 			page 26


 720:Generated_Source\PSoC4/adcUser.c **** *   per 10 volt.
 721:Generated_Source\PSoC4/adcUser.c **** *
 722:Generated_Source\PSoC4/adcUser.c **** *******************************************************************************/
 723:Generated_Source\PSoC4/adcUser.c **** void adcUser_SetGain(uint32 chan, int32 adcGain)
 724:Generated_Source\PSoC4/adcUser.c **** {
 696              		.loc 1 724 0
 697              		.cfi_startproc
 698              		@ args = 0, pretend = 0, frame = 0
 699              		@ frame_needed = 0, uses_anonymous_args = 0
 700              	.LVL43:
 701 0000 70B5     		push	{r4, r5, r6, lr}
 702              		.cfi_def_cfa_offset 16
 703              		.cfi_offset 4, -16
 704              		.cfi_offset 5, -12
 705              		.cfi_offset 6, -8
 706              		.cfi_offset 14, -4
 707 0002 0400     		movs	r4, r0
 708 0004 0D00     		movs	r5, r1
 725:Generated_Source\PSoC4/adcUser.c ****     /* Halt CPU in debug mode if channel is out of valid range */
 726:Generated_Source\PSoC4/adcUser.c ****     CYASSERT(chan < adcUser_TOTAL_CHANNELS_NUM);
 709              		.loc 1 726 0
 710 0006 0028     		cmp	r0, #0
 711 0008 02D0     		beq	.L58
 712              		.loc 1 726 0 is_stmt 0 discriminator 1
 713 000a 0020     		movs	r0, #0
 714              	.LVL44:
 715 000c FFF7FEFF 		bl	CyHalt
 716              	.LVL45:
 717              	.L58:
 727:Generated_Source\PSoC4/adcUser.c **** 
 728:Generated_Source\PSoC4/adcUser.c ****     adcUser_countsPer10Volt[chan] = adcGain;
 718              		.loc 1 728 0 is_stmt 1
 719 0010 A400     		lsls	r4, r4, #2
 720              	.LVL46:
 721 0012 014B     		ldr	r3, .L59
 722 0014 E550     		str	r5, [r4, r3]
 729:Generated_Source\PSoC4/adcUser.c **** }
 723              		.loc 1 729 0
 724              		@ sp needed
 725              	.LVL47:
 726 0016 70BD     		pop	{r4, r5, r6, pc}
 727              	.L60:
 728              		.align	2
 729              	.L59:
 730 0018 00000000 		.word	adcUser_countsPer10Volt
 731              		.cfi_endproc
 732              	.LFE14:
 733              		.size	adcUser_SetGain, .-adcUser_SetGain
 734              		.comm	adcUser_countsPer10Volt,4,4
 735              		.comm	adcUser_offset,2,4
 736              		.global	adcUser_initVar
 737              		.bss
 738              		.set	.LANCHOR0,. + 0
 739              		.type	adcUser_initVar, %object
 740              		.size	adcUser_initVar, 1
 741              	adcUser_initVar:
 742 0000 00       		.space	1
ARM GAS  C:\Users\NGUYEN~1\AppData\Local\Temp\ccCvhWbK.s 			page 27


 743              		.text
 744              	.Letext0:
 745              		.file 2 "Generated_Source\\PSoC4\\cytypes.h"
 746              		.file 3 "Generated_Source\\PSoC4\\CyLib.h"