ARM GAS  C:\Users\NGUYEN~1\AppData\Local\Temp\ccARLgfN.s 			page 1


   1              		.syntax unified
   2              		.cpu cortex-m0
   3              		.fpu softvfp
   4              		.eabi_attribute 20, 1
   5              		.eabi_attribute 21, 1
   6              		.eabi_attribute 23, 3
   7              		.eabi_attribute 24, 1
   8              		.eabi_attribute 25, 1
   9              		.eabi_attribute 26, 1
  10              		.eabi_attribute 30, 1
  11              		.eabi_attribute 34, 0
  12              		.eabi_attribute 18, 4
  13              		.thumb
  14              		.syntax unified
  15              		.file	"ledSingle.c"
  16              		.text
  17              	.Ltext0:
  18              		.cfi_sections	.debug_frame
  19              		.section	.text.ledBlink,"ax",%progbits
  20              		.align	2
  21              		.global	ledBlink
  22              		.code	16
  23              		.thumb_func
  24              		.type	ledBlink, %function
  25              	ledBlink:
  26              	.LFB32:
  27              		.file 1 "ledSingle.c"
   1:ledSingle.c   **** /* ========================================
   2:ledSingle.c   ****  *
   3:ledSingle.c   ****  * Copyright YOUR COMPANY, THE YEAR
   4:ledSingle.c   ****  * All Rights Reserved
   5:ledSingle.c   ****  * UNPUBLISHED, LICENSED SOFTWARE.
   6:ledSingle.c   ****  *
   7:ledSingle.c   ****  * CONFIDENTIAL AND PROPRIETARY INFORMATION
   8:ledSingle.c   ****  * WHICH IS THE PROPERTY OF your company.
   9:ledSingle.c   ****  *
  10:ledSingle.c   ****  * ========================================
  11:ledSingle.c   **** */
  12:ledSingle.c   **** #include "project.h"
  13:ledSingle.c   **** 
  14:ledSingle.c   **** #include "ledSingle.h"
  15:ledSingle.c   **** 
  16:ledSingle.c   **** enum Status_Led
  17:ledSingle.c   **** {
  18:ledSingle.c   ****     TURN_ON,
  19:ledSingle.c   ****     TURN_OFF
  20:ledSingle.c   **** };
  21:ledSingle.c   **** 
  22:ledSingle.c   **** void ledBlink()
  23:ledSingle.c   **** {
  28              		.loc 1 23 0
  29              		.cfi_startproc
  30              		@ args = 0, pretend = 0, frame = 0
  31              		@ frame_needed = 0, uses_anonymous_args = 0
  32 0000 10B5     		push	{r4, lr}
  33              		.cfi_def_cfa_offset 8
  34              		.cfi_offset 4, -8
ARM GAS  C:\Users\NGUYEN~1\AppData\Local\Temp\ccARLgfN.s 			page 2


  35              		.cfi_offset 14, -4
  24:ledSingle.c   ****     ledRed_Write( ~ledRed_Read());
  36              		.loc 1 24 0
  37 0002 FFF7FEFF 		bl	ledRed_Read
  38              	.LVL0:
  39 0006 C043     		mvns	r0, r0
  40 0008 C0B2     		uxtb	r0, r0
  41 000a FFF7FEFF 		bl	ledRed_Write
  42              	.LVL1:
  25:ledSingle.c   ****     CyDelay(300);
  43              		.loc 1 25 0
  44 000e 9620     		movs	r0, #150
  45 0010 4000     		lsls	r0, r0, #1
  46 0012 FFF7FEFF 		bl	CyDelay
  47              	.LVL2:
  26:ledSingle.c   **** }
  48              		.loc 1 26 0
  49              		@ sp needed
  50 0016 10BD     		pop	{r4, pc}
  51              		.cfi_endproc
  52              	.LFE32:
  53              		.size	ledBlink, .-ledBlink
  54              		.section	.text.ledTurnOn,"ax",%progbits
  55              		.align	2
  56              		.global	ledTurnOn
  57              		.code	16
  58              		.thumb_func
  59              		.type	ledTurnOn, %function
  60              	ledTurnOn:
  61              	.LFB33:
  27:ledSingle.c   **** 
  28:ledSingle.c   **** void ledTurnOn()
  29:ledSingle.c   **** {
  62              		.loc 1 29 0
  63              		.cfi_startproc
  64              		@ args = 0, pretend = 0, frame = 0
  65              		@ frame_needed = 0, uses_anonymous_args = 0
  66 0000 10B5     		push	{r4, lr}
  67              		.cfi_def_cfa_offset 8
  68              		.cfi_offset 4, -8
  69              		.cfi_offset 14, -4
  30:ledSingle.c   ****     ledRed_Write(TURN_ON);
  70              		.loc 1 30 0
  71 0002 0020     		movs	r0, #0
  72 0004 FFF7FEFF 		bl	ledRed_Write
  73              	.LVL3:
  31:ledSingle.c   **** }
  74              		.loc 1 31 0
  75              		@ sp needed
  76 0008 10BD     		pop	{r4, pc}
  77              		.cfi_endproc
  78              	.LFE33:
  79              		.size	ledTurnOn, .-ledTurnOn
  80 000a C046     		.section	.text.ledTurnOff,"ax",%progbits
  81              		.align	2
  82              		.global	ledTurnOff
  83              		.code	16
ARM GAS  C:\Users\NGUYEN~1\AppData\Local\Temp\ccARLgfN.s 			page 3


  84              		.thumb_func
  85              		.type	ledTurnOff, %function
  86              	ledTurnOff:
  87              	.LFB34:
  32:ledSingle.c   **** 
  33:ledSingle.c   **** void ledTurnOff()
  34:ledSingle.c   **** {
  88              		.loc 1 34 0
  89              		.cfi_startproc
  90              		@ args = 0, pretend = 0, frame = 0
  91              		@ frame_needed = 0, uses_anonymous_args = 0
  92 0000 10B5     		push	{r4, lr}
  93              		.cfi_def_cfa_offset 8
  94              		.cfi_offset 4, -8
  95              		.cfi_offset 14, -4
  35:ledSingle.c   ****     ledRed_Write(TURN_OFF);    
  96              		.loc 1 35 0
  97 0002 0120     		movs	r0, #1
  98 0004 FFF7FEFF 		bl	ledRed_Write
  99              	.LVL4:
  36:ledSingle.c   **** }
 100              		.loc 1 36 0
 101              		@ sp needed
 102 0008 10BD     		pop	{r4, pc}
 103              		.cfi_endproc
 104              	.LFE34:
 105              		.size	ledTurnOff, .-ledTurnOff
 106 000a C046     		.text
 107              	.Letext0:
 108              		.file 2 "Generated_Source\\PSoC4/ledRed.h"
 109              		.file 3 "Generated_Source\\PSoC4/CyLib.h"