ARM GAS  C:\Users\NGUYEN~1\AppData\Local\Temp\cc0CIE5M.s 			page 1


   1              		.syntax unified
   2              		.cpu cortex-m0
   3              		.fpu softvfp
   4              		.eabi_attribute 20, 1
   5              		.eabi_attribute 21, 1
   6              		.eabi_attribute 23, 3
   7              		.eabi_attribute 24, 1
   8              		.eabi_attribute 25, 1
   9              		.eabi_attribute 26, 1
  10              		.eabi_attribute 30, 1
  11              		.eabi_attribute 34, 0
  12              		.eabi_attribute 18, 4
  13              		.thumb
  14              		.syntax unified
  15              		.file	"rtc_ds1307.c"
  16              		.text
  17              	.Ltext0:
  18              		.cfi_sections	.debug_frame
  19              		.section	.text.BCD_Convert_DEC,"ax",%progbits
  20              		.align	2
  21              		.global	BCD_Convert_DEC
  22              		.code	16
  23              		.thumb_func
  24              		.type	BCD_Convert_DEC, %function
  25              	BCD_Convert_DEC:
  26              	.LFB33:
  27              		.file 1 "rtc_ds1307.c"
   1:rtc_ds1307.c  **** /* ========================================
   2:rtc_ds1307.c  ****  *
   3:rtc_ds1307.c  ****  * Copyright YOUR COMPANY, THE YEAR
   4:rtc_ds1307.c  ****  * All Rights Reserved
   5:rtc_ds1307.c  ****  * UNPUBLISHED, LICENSED SOFTWARE.
   6:rtc_ds1307.c  ****  *
   7:rtc_ds1307.c  ****  * CONFIDENTIAL AND PROPRIETARY INFORMATION
   8:rtc_ds1307.c  ****  * WHICH IS THE PROPERTY OF your company.
   9:rtc_ds1307.c  ****  *
  10:rtc_ds1307.c  ****  * ========================================
  11:rtc_ds1307.c  **** */
  12:rtc_ds1307.c  ****     #include "rtc_ds1307.h"
  13:rtc_ds1307.c  ****     
  14:rtc_ds1307.c  ****     
  15:rtc_ds1307.c  ****     int BCD_Convert_DEC(int BCD)
  16:rtc_ds1307.c  ****     {
  28              		.loc 1 16 0
  29              		.cfi_startproc
  30              		@ args = 0, pretend = 0, frame = 0
  31              		@ frame_needed = 0, uses_anonymous_args = 0
  32              		@ link register save eliminated.
  33              	.LVL0:
  34 0000 0300     		movs	r3, r0
  17:rtc_ds1307.c  ****         int low, hight;
  18:rtc_ds1307.c  ****         low = BCD & 0x0F;
  35              		.loc 1 18 0
  36 0002 0F20     		movs	r0, #15
  37              	.LVL1:
  38 0004 1840     		ands	r0, r3
  39              	.LVL2:
ARM GAS  C:\Users\NGUYEN~1\AppData\Local\Temp\cc0CIE5M.s 			page 2


  19:rtc_ds1307.c  ****         hight = (BCD>>4)*10;
  40              		.loc 1 19 0
  41 0006 1B11     		asrs	r3, r3, #4
  42              	.LVL3:
  43 0008 9A00     		lsls	r2, r3, #2
  44 000a D318     		adds	r3, r2, r3
  45 000c 5A00     		lsls	r2, r3, #1
  46              	.LVL4:
  20:rtc_ds1307.c  ****         return (hight+low);
  47              		.loc 1 20 0
  48 000e 8018     		adds	r0, r0, r2
  49              	.LVL5:
  21:rtc_ds1307.c  ****     }
  50              		.loc 1 21 0
  51              		@ sp needed
  52 0010 7047     		bx	lr
  53              		.cfi_endproc
  54              	.LFE33:
  55              		.size	BCD_Convert_DEC, .-BCD_Convert_DEC
  56              		.global	__aeabi_idivmod
  57              		.global	__aeabi_idiv
  58 0012 C046     		.section	.text.DEC_Convert_BCD,"ax",%progbits
  59              		.align	2
  60              		.global	DEC_Convert_BCD
  61              		.code	16
  62              		.thumb_func
  63              		.type	DEC_Convert_BCD, %function
  64              	DEC_Convert_BCD:
  65              	.LFB34:
  22:rtc_ds1307.c  ****     
  23:rtc_ds1307.c  ****     int DEC_Convert_BCD(int DEC)
  24:rtc_ds1307.c  ****     {
  66              		.loc 1 24 0
  67              		.cfi_startproc
  68              		@ args = 0, pretend = 0, frame = 0
  69              		@ frame_needed = 0, uses_anonymous_args = 0
  70              	.LVL6:
  71 0000 70B5     		push	{r4, r5, r6, lr}
  72              		.cfi_def_cfa_offset 16
  73              		.cfi_offset 4, -16
  74              		.cfi_offset 5, -12
  75              		.cfi_offset 6, -8
  76              		.cfi_offset 14, -4
  77 0002 0400     		movs	r4, r0
  25:rtc_ds1307.c  ****         int low, hight;
  26:rtc_ds1307.c  ****         low = DEC%10;
  78              		.loc 1 26 0
  79 0004 0A21     		movs	r1, #10
  80 0006 FFF7FEFF 		bl	__aeabi_idivmod
  81              	.LVL7:
  82 000a 0D00     		movs	r5, r1
  83              	.LVL8:
  27:rtc_ds1307.c  ****         hight = (DEC/10)<<4;
  84              		.loc 1 27 0
  85 000c 0A21     		movs	r1, #10
  86              	.LVL9:
  87 000e 2000     		movs	r0, r4
ARM GAS  C:\Users\NGUYEN~1\AppData\Local\Temp\cc0CIE5M.s 			page 3


  88 0010 FFF7FEFF 		bl	__aeabi_idiv
  89              	.LVL10:
  90 0014 0001     		lsls	r0, r0, #4
  91              	.LVL11:
  28:rtc_ds1307.c  ****         return (hight+low);
  92              		.loc 1 28 0
  93 0016 2818     		adds	r0, r5, r0
  94              	.LVL12:
  29:rtc_ds1307.c  ****     }
  95              		.loc 1 29 0
  96              		@ sp needed
  97              	.LVL13:
  98              	.LVL14:
  99 0018 70BD     		pop	{r4, r5, r6, pc}
 100              		.cfi_endproc
 101              	.LFE34:
 102              		.size	DEC_Convert_BCD, .-DEC_Convert_BCD
 103 001a C046     		.section	.text.dislayTime,"ax",%progbits
 104              		.align	2
 105              		.global	dislayTime
 106              		.code	16
 107              		.thumb_func
 108              		.type	dislayTime, %function
 109              	dislayTime:
 110              	.LFB35:
  30:rtc_ds1307.c  ****     
  31:rtc_ds1307.c  ****     //void dislayTime(int hour, int minute, int second, int dayOfWeek, int day, int month, int year
  32:rtc_ds1307.c  ****     void dislayTime(ds1307_struct rtc)
  33:rtc_ds1307.c  ****     {
 111              		.loc 1 33 0
 112              		.cfi_startproc
 113              		@ args = 0, pretend = 0, frame = 40
 114              		@ frame_needed = 0, uses_anonymous_args = 0
 115 0000 30B5     		push	{r4, r5, lr}
 116              		.cfi_def_cfa_offset 12
 117              		.cfi_offset 4, -12
 118              		.cfi_offset 5, -8
 119              		.cfi_offset 14, -4
 120 0002 97B0     		sub	sp, sp, #92
 121              		.cfi_def_cfa_offset 104
 122 0004 040E     		lsrs	r4, r0, #24
 123 0006 0C90     		str	r0, [sp, #48]
 124 0008 0D91     		str	r1, [sp, #52]
  34:rtc_ds1307.c  ****         char time[25] = {'\0'};
 125              		.loc 1 34 0
 126 000a 1922     		movs	r2, #25
 127 000c 0021     		movs	r1, #0
 128 000e 0FA8     		add	r0, sp, #60
 129 0010 FFF7FEFF 		bl	memset
 130              	.LVL15:
  35:rtc_ds1307.c  ****         char dayOfWeeks[4] = {'\0'};
 131              		.loc 1 35 0
 132 0014 0023     		movs	r3, #0
 133 0016 0E93     		str	r3, [sp, #56]
  36:rtc_ds1307.c  ****         
  37:rtc_ds1307.c  ****         switch(rtc.dayWeek)
 134              		.loc 1 37 0
ARM GAS  C:\Users\NGUYEN~1\AppData\Local\Temp\cc0CIE5M.s 			page 4


 135 0018 E0B2     		uxtb	r0, r4
 136 001a 0728     		cmp	r0, #7
 137 001c 1ED8     		bhi	.L4
 138 001e 8000     		lsls	r0, r0, #2
 139 0020 1E4B     		ldr	r3, .L13
 140 0022 1B58     		ldr	r3, [r3, r0]
 141 0024 9F46     		mov	pc, r3
 142              		.section	.rodata
 143              		.align	2
 144              	.L6:
 145 0000 5C000000 		.word	.L4
 146 0004 26000000 		.word	.L5
 147 0008 2E000000 		.word	.L7
 148 000c 36000000 		.word	.L8
 149 0010 3E000000 		.word	.L9
 150 0014 46000000 		.word	.L10
 151 0018 4E000000 		.word	.L11
 152 001c 56000000 		.word	.L12
 153              		.section	.text.dislayTime
 154              	.L5:
  38:rtc_ds1307.c  ****         {
  39:rtc_ds1307.c  ****             case 1:
  40:rtc_ds1307.c  ****                 strcpy(dayOfWeeks, "Sun\0");
 155              		.loc 1 40 0
 156 0026 1E4B     		ldr	r3, .L13+4
 157 0028 1B68     		ldr	r3, [r3]
 158 002a 0E93     		str	r3, [sp, #56]
  41:rtc_ds1307.c  ****                 break;
 159              		.loc 1 41 0
 160 002c 16E0     		b	.L4
 161              	.L7:
  42:rtc_ds1307.c  ****             case 2: 
  43:rtc_ds1307.c  ****                 strcpy(dayOfWeeks, "Mon\0");
 162              		.loc 1 43 0
 163 002e 1C4B     		ldr	r3, .L13+4
 164 0030 9B68     		ldr	r3, [r3, #8]
 165 0032 0E93     		str	r3, [sp, #56]
  44:rtc_ds1307.c  ****                 break;
 166              		.loc 1 44 0
 167 0034 12E0     		b	.L4
 168              	.L8:
  45:rtc_ds1307.c  ****             case 3: 
  46:rtc_ds1307.c  ****                 strcpy(dayOfWeeks, "Tue\0");
 169              		.loc 1 46 0
 170 0036 1A4B     		ldr	r3, .L13+4
 171 0038 1B69     		ldr	r3, [r3, #16]
 172 003a 0E93     		str	r3, [sp, #56]
  47:rtc_ds1307.c  ****                 break;                
 173              		.loc 1 47 0
 174 003c 0EE0     		b	.L4
 175              	.L9:
  48:rtc_ds1307.c  ****             case 4: 
  49:rtc_ds1307.c  ****                 strcpy(dayOfWeeks, "Web\0");
 176              		.loc 1 49 0
 177 003e 184B     		ldr	r3, .L13+4
 178 0040 9B69     		ldr	r3, [r3, #24]
 179 0042 0E93     		str	r3, [sp, #56]
ARM GAS  C:\Users\NGUYEN~1\AppData\Local\Temp\cc0CIE5M.s 			page 5


  50:rtc_ds1307.c  ****                 break;
 180              		.loc 1 50 0
 181 0044 0AE0     		b	.L4
 182              	.L10:
  51:rtc_ds1307.c  ****             case 5: 
  52:rtc_ds1307.c  ****                 strcpy(dayOfWeeks, "Thu\0");
 183              		.loc 1 52 0
 184 0046 164B     		ldr	r3, .L13+4
 185 0048 1B6A     		ldr	r3, [r3, #32]
 186 004a 0E93     		str	r3, [sp, #56]
  53:rtc_ds1307.c  ****                 break;
 187              		.loc 1 53 0
 188 004c 06E0     		b	.L4
 189              	.L11:
  54:rtc_ds1307.c  ****             case 6: 
  55:rtc_ds1307.c  ****                 strcpy(dayOfWeeks, "Fri\0");
 190              		.loc 1 55 0
 191 004e 144B     		ldr	r3, .L13+4
 192 0050 9B6A     		ldr	r3, [r3, #40]
 193 0052 0E93     		str	r3, [sp, #56]
  56:rtc_ds1307.c  ****                 break;
 194              		.loc 1 56 0
 195 0054 02E0     		b	.L4
 196              	.L12:
  57:rtc_ds1307.c  ****             case 7: 
  58:rtc_ds1307.c  ****                 strcpy(dayOfWeeks, "Sat\0");
 197              		.loc 1 58 0
 198 0056 124B     		ldr	r3, .L13+4
 199 0058 1B6B     		ldr	r3, [r3, #48]
 200 005a 0E93     		str	r3, [sp, #56]
 201              	.L4:
  59:rtc_ds1307.c  ****                 break;                           
  60:rtc_ds1307.c  ****         }
  61:rtc_ds1307.c  ****             
  62:rtc_ds1307.c  ****         
  63:rtc_ds1307.c  ****         sprintf(time, "%d%c%d%c%d %c %s %c %d%c%d%c%d", rtc.hour, ':', rtc.min, ':', rtc.sec, ' ',d
 202              		.loc 1 63 0
 203 005c 0CAB     		add	r3, sp, #48
 204 005e 9A78     		ldrb	r2, [r3, #2]
 205 0060 5978     		ldrb	r1, [r3, #1]
 206 0062 1878     		ldrb	r0, [r3]
 207 0064 1C79     		ldrb	r4, [r3, #4]
 208 0066 5D79     		ldrb	r5, [r3, #5]
 209 0068 DB88     		ldrh	r3, [r3, #6]
 210 006a 0A93     		str	r3, [sp, #40]
 211 006c 2F23     		movs	r3, #47
 212 006e 0993     		str	r3, [sp, #36]
 213 0070 0895     		str	r5, [sp, #32]
 214 0072 0793     		str	r3, [sp, #28]
 215 0074 0694     		str	r4, [sp, #24]
 216 0076 0F3B     		subs	r3, r3, #15
 217 0078 0593     		str	r3, [sp, #20]
 218 007a 0EAC     		add	r4, sp, #56
 219 007c 0494     		str	r4, [sp, #16]
 220 007e 0393     		str	r3, [sp, #12]
 221 0080 0290     		str	r0, [sp, #8]
 222 0082 1A33     		adds	r3, r3, #26
ARM GAS  C:\Users\NGUYEN~1\AppData\Local\Temp\cc0CIE5M.s 			page 6


 223 0084 0193     		str	r3, [sp, #4]
 224 0086 0091     		str	r1, [sp]
 225 0088 0649     		ldr	r1, .L13+8
 226 008a 0FA8     		add	r0, sp, #60
 227 008c FFF7FEFF 		bl	sprintf
 228              	.LVL16:
  64:rtc_ds1307.c  ****         
  65:rtc_ds1307.c  ****         uart_UartPutString( time );
 229              		.loc 1 65 0
 230 0090 0FA8     		add	r0, sp, #60
 231 0092 FFF7FEFF 		bl	uart_UartPutString
 232              	.LVL17:
  66:rtc_ds1307.c  ****     }
 233              		.loc 1 66 0
 234 0096 17B0     		add	sp, sp, #92
 235              		@ sp needed
 236 0098 30BD     		pop	{r4, r5, pc}
 237              	.L14:
 238 009a C046     		.align	2
 239              	.L13:
 240 009c 00000000 		.word	.L6
 241 00a0 20000000 		.word	.LANCHOR0
 242 00a4 00000000 		.word	.LC9
 243              		.cfi_endproc
 244              	.LFE35:
 245              		.size	dislayTime, .-dislayTime
 246              		.section	.text.readRtc,"ax",%progbits
 247              		.align	2
 248              		.global	readRtc
 249              		.code	16
 250              		.thumb_func
 251              		.type	readRtc, %function
 252              	readRtc:
 253              	.LFB36:
  67:rtc_ds1307.c  ****     
  68:rtc_ds1307.c  ****     void readRtc()
  69:rtc_ds1307.c  ****     {
 254              		.loc 1 69 0
 255              		.cfi_startproc
 256              		@ args = 0, pretend = 0, frame = 0
 257              		@ frame_needed = 0, uses_anonymous_args = 0
 258              		@ link register save eliminated.
  70:rtc_ds1307.c  ****          
  71:rtc_ds1307.c  ****     }
 259              		.loc 1 71 0
 260              		@ sp needed
 261 0000 7047     		bx	lr
 262              		.cfi_endproc
 263              	.LFE36:
 264              		.size	readRtc, .-readRtc
 265 0002 C046     		.section	.text.writeRtc,"ax",%progbits
 266              		.align	2
 267              		.global	writeRtc
 268              		.code	16
 269              		.thumb_func
 270              		.type	writeRtc, %function
 271              	writeRtc:
ARM GAS  C:\Users\NGUYEN~1\AppData\Local\Temp\cc0CIE5M.s 			page 7


 272              	.LFB37:
  72:rtc_ds1307.c  ****     
  73:rtc_ds1307.c  ****     void writeRtc(ds1307_struct rtc)
  74:rtc_ds1307.c  ****     {
 273              		.loc 1 74 0
 274              		.cfi_startproc
 275              		@ args = 0, pretend = 0, frame = 8
 276              		@ frame_needed = 0, uses_anonymous_args = 0
 277              		@ link register save eliminated.
 278 0000 82B0     		sub	sp, sp, #8
 279              		.cfi_def_cfa_offset 8
  75:rtc_ds1307.c  ****         char rxData[8] = {'\0'};
  76:rtc_ds1307.c  ****         
  77:rtc_ds1307.c  ****         rxData[0] = 0;
  78:rtc_ds1307.c  ****         rxData[1] = DEC_Convert_BCD(rtc.sec);
  79:rtc_ds1307.c  ****         rxData[2] = DEC_Convert_BCD(rtc.min);
  80:rtc_ds1307.c  ****         rxData[3] = DEC_Convert_BCD(rtc.hour);  //24h mode
  81:rtc_ds1307.c  ****         rxData[4] = DEC_Convert_BCD(rtc.dayWeek);
  82:rtc_ds1307.c  ****         rxData[5] = DEC_Convert_BCD(rtc.date);
  83:rtc_ds1307.c  ****         rxData[6] = DEC_Convert_BCD(rtc.month);
  84:rtc_ds1307.c  ****         rxData[7] = DEC_Convert_BCD(rtc.year);
  85:rtc_ds1307.c  ****         rxData[8] = 0x93;
  86:rtc_ds1307.c  ****         
  87:rtc_ds1307.c  ****         
  88:rtc_ds1307.c  ****         
  89:rtc_ds1307.c  ****     }
 280              		.loc 1 89 0
 281 0002 02B0     		add	sp, sp, #8
 282              		@ sp needed
 283 0004 7047     		bx	lr
 284              		.cfi_endproc
 285              	.LFE37:
 286              		.size	writeRtc, .-writeRtc
 287 0006 C046     		.section	.rodata
 288              		.align	2
 289              		.set	.LANCHOR0,. + 0
 290              	.LC1:
 291 0020 53756E00 		.ascii	"Sun\000\000"
 291      00
 292 0025 000000   		.space	3
 293              	.LC3:
 294 0028 4D6F6E00 		.ascii	"Mon\000\000"
 294      00
 295 002d 000000   		.space	3
 296              	.LC4:
 297 0030 54756500 		.ascii	"Tue\000\000"
 297      00
 298 0035 000000   		.space	3
 299              	.LC5:
 300 0038 57656200 		.ascii	"Web\000\000"
 300      00
 301 003d 000000   		.space	3
 302              	.LC6:
 303 0040 54687500 		.ascii	"Thu\000\000"
 303      00
 304 0045 000000   		.space	3
 305              	.LC7:
ARM GAS  C:\Users\NGUYEN~1\AppData\Local\Temp\cc0CIE5M.s 			page 8


 306 0048 46726900 		.ascii	"Fri\000\000"
 306      00
 307 004d 000000   		.space	3
 308              	.LC8:
 309 0050 53617400 		.ascii	"Sat\000\000"
 309      00
 310              		.section	.rodata.str1.4,"aMS",%progbits,1
 311              		.align	2
 312              	.LC9:
 313 0000 25642563 		.ascii	"%d%c%d%c%d %c %s %c %d%c%d%c%d\000"
 313      25642563 
 313      25642025 
 313      63202573 
 313      20256320 
 314              		.text
 315              	.Letext0:
 316              		.file 2 "c:\\program files (x86)\\cypress\\psoc creator\\4.4\\psoc creator\\import\\gnu\\arm\\5.4.
 317              		.file 3 "c:\\program files (x86)\\cypress\\psoc creator\\4.4\\psoc creator\\import\\gnu\\arm\\5.4.
 318              		.file 4 "rtc_ds1307.h"
 319              		.file 5 "c:\\program files (x86)\\cypress\\psoc creator\\4.4\\psoc creator\\import\\gnu\\arm\\5.4.
 320              		.file 6 "Generated_Source\\PSoC4/uart_SPI_UART.h"