ARM GAS  C:\Users\NGUYEN~1\AppData\Local\Temp\ccMRIXqe.s 			page 1


   1              		.syntax unified
   2              		.cpu cortex-m0
   3              		.fpu softvfp
   4              		.eabi_attribute 20, 1
   5              		.eabi_attribute 21, 1
   6              		.eabi_attribute 23, 3
   7              		.eabi_attribute 24, 1
   8              		.eabi_attribute 25, 1
   9              		.eabi_attribute 26, 1
  10              		.eabi_attribute 30, 1
  11              		.eabi_attribute 34, 0
  12              		.eabi_attribute 18, 4
  13              		.thumb
  14              		.syntax unified
  15              		.file	"ledMatrix.c"
  16              		.text
  17              	.Ltext0:
  18              		.cfi_sections	.debug_frame
  19              		.section	.text.writeHightOrLow,"ax",%progbits
  20              		.align	2
  21              		.global	writeHightOrLow
  22              		.code	16
  23              		.thumb_func
  24              		.type	writeHightOrLow, %function
  25              	writeHightOrLow:
  26              	.LFB32:
  27              		.file 1 "ledMatrix.c"
   1:ledMatrix.c   **** /* ========================================
   2:ledMatrix.c   ****  *
   3:ledMatrix.c   ****  * Copyright YOUR COMPANY, THE YEAR
   4:ledMatrix.c   ****  * All Rights Reserved
   5:ledMatrix.c   ****  * UNPUBLISHED, LICENSED SOFTWARE.
   6:ledMatrix.c   ****  *
   7:ledMatrix.c   ****  * CONFIDENTIAL AND PROPRIETARY INFORMATION
   8:ledMatrix.c   ****  * WHICH IS THE PROPERTY OF your company.
   9:ledMatrix.c   ****  *
  10:ledMatrix.c   ****  * ========================================
  11:ledMatrix.c   **** */
  12:ledMatrix.c   **** #include "ledMatrix.h"
  13:ledMatrix.c   **** 
  14:ledMatrix.c   **** uint8 control[] = { 0x01,0x02,0x04,0x08,0x10,0x20,0x40,0x80 };
  15:ledMatrix.c   **** 
  16:ledMatrix.c   **** uint8 data[] = {
  17:ledMatrix.c   ****                 0xff,0x81,0x7e,0x7e,0x7e,0x7e,0x81,0xff,//0
  18:ledMatrix.c   ****                 0xff,0x7b,0x7d,0x00,0x00,0x7f,0x7f,0xff,//1
  19:ledMatrix.c   ****                 0xff,0x86,0xb6,0xb6,0xb6,0xb6,0xb0,0xff,//2
  20:ledMatrix.c   ****                 0xff,0x66,0x66,0x66,0x66,0x98,0xff,0xff,//3
  21:ledMatrix.c   ****                 0xef,0xe7,0xeb,0x6d,0x00,0x6f,0xef,0xff,//4
  22:ledMatrix.c   ****                 0xff,0x78,0x7a,0x7a,0xba,0xc6,0xff,0xff,//5
  23:ledMatrix.c   ****                 0xff,0x81,0x76,0x76,0x76,0x8d,0xff,0xff,//6
  24:ledMatrix.c   ****                 0xff,0xff,0xfc,0xfe,0xfe,0xfe,0x00,0xff,//7
  25:ledMatrix.c   ****                 0xff,0x89,0x76,0x76,0x76,0x89,0xff,0xff,//8
  26:ledMatrix.c   ****                 0xff,0xb9,0x76,0x76,0x76,0x81,0xff,0xff,//9
  27:ledMatrix.c   ****                 0x00,0x00,0x00,0x00,0x00,0x00,0x00,0x00, // turn on full
  28:ledMatrix.c   ****                 0xFF,0xFF,0xFF,0xFF,0xFF,0xFF,0xFF,0xFF  // turn off full
  29:ledMatrix.c   ****                 
  30:ledMatrix.c   ****                 
ARM GAS  C:\Users\NGUYEN~1\AppData\Local\Temp\ccMRIXqe.s 			page 2


  31:ledMatrix.c   **** };
  32:ledMatrix.c   **** uint8 data1[] = {0xE7,0xE7,0xE7,0xE7,0x00,0x00,0xE7,0xE7 //+
  33:ledMatrix.c   ****                 };
  34:ledMatrix.c   **** 
  35:ledMatrix.c   **** /*
  36:ledMatrix.c   ****     Curent location --> will return hight logic, contra return low logic
  37:ledMatrix.c   **** */
  38:ledMatrix.c   **** uint8 writeHightOrLow(uint8 dataNeedWrite, uint8 locationWrite)
  39:ledMatrix.c   **** {
  28              		.loc 1 39 0
  29              		.cfi_startproc
  30              		@ args = 0, pretend = 0, frame = 0
  31              		@ frame_needed = 0, uses_anonymous_args = 0
  32              		@ link register save eliminated.
  33              	.LVL0:
  40:ledMatrix.c   ****     uint8 result = 0;
  41:ledMatrix.c   ****     
  42:ledMatrix.c   ****     switch(locationWrite)
  34              		.loc 1 42 0
  35 0000 0729     		cmp	r1, #7
  36 0002 24D8     		bhi	.L12
  37 0004 8900     		lsls	r1, r1, #2
  38              	.LVL1:
  39 0006 1B4B     		ldr	r3, .L21
  40 0008 5B58     		ldr	r3, [r3, r1]
  41 000a 9F46     		mov	pc, r3
  42              		.section	.rodata
  43              		.align	2
  44              	.L4:
  45 0000 0C000000 		.word	.L3
  46 0004 14000000 		.word	.L5
  47 0008 1C000000 		.word	.L6
  48 000c 24000000 		.word	.L7
  49 0010 2C000000 		.word	.L8
  50 0014 34000000 		.word	.L9
  51 0018 3C000000 		.word	.L10
  52 001c 44000000 		.word	.L11
  53              		.section	.text.writeHightOrLow
  54              	.L3:
  43:ledMatrix.c   ****     {
  44:ledMatrix.c   ****         case 0:
  45:ledMatrix.c   ****             ((dataNeedWrite & (1<<0)) == (1<<0) ) ? (result = hight) : (result = low);
  55              		.loc 1 45 0
  56 000c C307     		lsls	r3, r0, #31
  57 000e 20D5     		bpl	.L13
  58 0010 0120     		movs	r0, #1
  59              	.LVL2:
  60 0012 2DE0     		b	.L2
  61              	.LVL3:
  62              	.L5:
  46:ledMatrix.c   ****             break;
  47:ledMatrix.c   ****         case 1:
  48:ledMatrix.c   ****             ((dataNeedWrite & (1<<1)) == (1<<1)) ? (result = hight) : (result = low);
  63              		.loc 1 48 0
  64 0014 8307     		lsls	r3, r0, #30
  65 0016 1ED5     		bpl	.L14
  66 0018 0120     		movs	r0, #1
ARM GAS  C:\Users\NGUYEN~1\AppData\Local\Temp\ccMRIXqe.s 			page 3


  67              	.LVL4:
  68 001a 29E0     		b	.L2
  69              	.LVL5:
  70              	.L6:
  49:ledMatrix.c   ****             break;
  50:ledMatrix.c   ****         case 2:
  51:ledMatrix.c   ****             ((dataNeedWrite & (1<<2)) == (1<<2)) ? (result = hight) : (result = low);
  71              		.loc 1 51 0
  72 001c 4307     		lsls	r3, r0, #29
  73 001e 1CD5     		bpl	.L15
  74 0020 0120     		movs	r0, #1
  75              	.LVL6:
  76 0022 25E0     		b	.L2
  77              	.LVL7:
  78              	.L7:
  52:ledMatrix.c   ****             break;
  53:ledMatrix.c   ****         case 3:
  54:ledMatrix.c   ****             ((dataNeedWrite & (1<<3)) == (1<<3) ) ? (result = hight) : (result = low);
  79              		.loc 1 54 0
  80 0024 0307     		lsls	r3, r0, #28
  81 0026 1AD5     		bpl	.L16
  82 0028 0120     		movs	r0, #1
  83              	.LVL8:
  84 002a 21E0     		b	.L2
  85              	.LVL9:
  86              	.L8:
  55:ledMatrix.c   ****             break;
  56:ledMatrix.c   ****         case 4:
  57:ledMatrix.c   ****             ((dataNeedWrite & (1<<4)) == (1<<4) ) ? (result = hight) : (result = low);
  87              		.loc 1 57 0
  88 002c C306     		lsls	r3, r0, #27
  89 002e 18D5     		bpl	.L17
  90 0030 0120     		movs	r0, #1
  91              	.LVL10:
  92 0032 1DE0     		b	.L2
  93              	.LVL11:
  94              	.L9:
  58:ledMatrix.c   ****             break;
  59:ledMatrix.c   ****         case 5:
  60:ledMatrix.c   ****             ((dataNeedWrite & (1<<5)) == (1<<5) ) ? (result = hight) : (result = low);
  95              		.loc 1 60 0
  96 0034 8306     		lsls	r3, r0, #26
  97 0036 16D5     		bpl	.L18
  98 0038 0120     		movs	r0, #1
  99              	.LVL12:
 100 003a 19E0     		b	.L2
 101              	.LVL13:
 102              	.L10:
  61:ledMatrix.c   ****             break;
  62:ledMatrix.c   ****         case 6:
  63:ledMatrix.c   ****             ((dataNeedWrite & (1<<6)) == (1<<6) ) ? (result = hight) : (result = low);
 103              		.loc 1 63 0
 104 003c 4306     		lsls	r3, r0, #25
 105 003e 14D5     		bpl	.L19
 106 0040 0120     		movs	r0, #1
 107              	.LVL14:
 108 0042 15E0     		b	.L2
ARM GAS  C:\Users\NGUYEN~1\AppData\Local\Temp\ccMRIXqe.s 			page 4


 109              	.LVL15:
 110              	.L11:
  64:ledMatrix.c   ****             break;
  65:ledMatrix.c   ****         case 7:
  66:ledMatrix.c   ****             ((dataNeedWrite & (1<<7)) == (1<<7) ) ? (result = hight) : (result = low);
 111              		.loc 1 66 0
 112 0044 40B2     		sxtb	r0, r0
 113 0046 0028     		cmp	r0, #0
 114 0048 11DA     		bge	.L20
 115 004a 0120     		movs	r0, #1
 116              	.LVL16:
 117 004c 10E0     		b	.L2
 118              	.LVL17:
 119              	.L12:
  40:ledMatrix.c   ****     
 120              		.loc 1 40 0
 121 004e 0020     		movs	r0, #0
 122              	.LVL18:
 123 0050 0EE0     		b	.L2
 124              	.LVL19:
 125              	.L13:
  45:ledMatrix.c   ****             break;
 126              		.loc 1 45 0
 127 0052 0020     		movs	r0, #0
 128              	.LVL20:
 129 0054 0CE0     		b	.L2
 130              	.LVL21:
 131              	.L14:
  48:ledMatrix.c   ****             break;
 132              		.loc 1 48 0
 133 0056 0020     		movs	r0, #0
 134              	.LVL22:
 135 0058 0AE0     		b	.L2
 136              	.LVL23:
 137              	.L15:
  51:ledMatrix.c   ****             break;
 138              		.loc 1 51 0
 139 005a 0020     		movs	r0, #0
 140              	.LVL24:
 141 005c 08E0     		b	.L2
 142              	.LVL25:
 143              	.L16:
  54:ledMatrix.c   ****             break;
 144              		.loc 1 54 0
 145 005e 0020     		movs	r0, #0
 146              	.LVL26:
 147 0060 06E0     		b	.L2
 148              	.LVL27:
 149              	.L17:
  57:ledMatrix.c   ****             break;
 150              		.loc 1 57 0
 151 0062 0020     		movs	r0, #0
 152              	.LVL28:
 153 0064 04E0     		b	.L2
 154              	.LVL29:
 155              	.L18:
  60:ledMatrix.c   ****             break;
ARM GAS  C:\Users\NGUYEN~1\AppData\Local\Temp\ccMRIXqe.s 			page 5


 156              		.loc 1 60 0
 157 0066 0020     		movs	r0, #0
 158              	.LVL30:
 159 0068 02E0     		b	.L2
 160              	.LVL31:
 161              	.L19:
  63:ledMatrix.c   ****             break;
 162              		.loc 1 63 0
 163 006a 0020     		movs	r0, #0
 164              	.LVL32:
 165 006c 00E0     		b	.L2
 166              	.LVL33:
 167              	.L20:
 168              		.loc 1 66 0
 169 006e 0020     		movs	r0, #0
 170              	.LVL34:
 171              	.L2:
  67:ledMatrix.c   ****            
  68:ledMatrix.c   ****     }
  69:ledMatrix.c   ****     
  70:ledMatrix.c   ****     return result;
  71:ledMatrix.c   **** }
 172              		.loc 1 71 0
 173              		@ sp needed
 174 0070 7047     		bx	lr
 175              	.L22:
 176 0072 C046     		.align	2
 177              	.L21:
 178 0074 00000000 		.word	.L4
 179              		.cfi_endproc
 180              	.LFE32:
 181              		.size	writeHightOrLow, .-writeHightOrLow
 182              		.section	.text.write_data,"ax",%progbits
 183              		.align	2
 184              		.global	write_data
 185              		.code	16
 186              		.thumb_func
 187              		.type	write_data, %function
 188              	write_data:
 189              	.LFB33:
  72:ledMatrix.c   **** 
  73:ledMatrix.c   **** void write_data(uint8 dataNeedWrite, uint8 rowOrCloumn)
  74:ledMatrix.c   **** {
 190              		.loc 1 74 0
 191              		.cfi_startproc
 192              		@ args = 0, pretend = 0, frame = 0
 193              		@ frame_needed = 0, uses_anonymous_args = 0
 194              	.LVL35:
 195 0000 10B5     		push	{r4, lr}
 196              		.cfi_def_cfa_offset 8
 197              		.cfi_offset 4, -8
 198              		.cfi_offset 14, -4
 199 0002 0400     		movs	r4, r0
  75:ledMatrix.c   ****     switch(rowOrCloumn)
 200              		.loc 1 75 0
 201 0004 0029     		cmp	r1, #0
 202 0006 02D0     		beq	.L25
ARM GAS  C:\Users\NGUYEN~1\AppData\Local\Temp\ccMRIXqe.s 			page 6


 203 0008 0129     		cmp	r1, #1
 204 000a 30D0     		beq	.L26
 205 000c 5EE0     		b	.L23
 206              	.L25:
  76:ledMatrix.c   ****     {
  77:ledMatrix.c   ****         case row:
  78:ledMatrix.c   ****             row_matrix_0_Write( writeHightOrLow(dataNeedWrite, 0) );
 207              		.loc 1 78 0
 208 000e 0021     		movs	r1, #0
 209              	.LVL36:
 210 0010 FFF7FEFF 		bl	writeHightOrLow
 211              	.LVL37:
 212 0014 FFF7FEFF 		bl	row_matrix_0_Write
 213              	.LVL38:
  79:ledMatrix.c   ****             row_matrix_1_Write( writeHightOrLow(dataNeedWrite, 1) );
 214              		.loc 1 79 0
 215 0018 0121     		movs	r1, #1
 216 001a 2000     		movs	r0, r4
 217 001c FFF7FEFF 		bl	writeHightOrLow
 218              	.LVL39:
 219 0020 FFF7FEFF 		bl	row_matrix_1_Write
 220              	.LVL40:
  80:ledMatrix.c   ****             row_matrix_2_Write( writeHightOrLow(dataNeedWrite, 2) );
 221              		.loc 1 80 0
 222 0024 0221     		movs	r1, #2
 223 0026 2000     		movs	r0, r4
 224 0028 FFF7FEFF 		bl	writeHightOrLow
 225              	.LVL41:
 226 002c FFF7FEFF 		bl	row_matrix_2_Write
 227              	.LVL42:
  81:ledMatrix.c   ****             row_matrix_3_Write( writeHightOrLow(dataNeedWrite, 3) );
 228              		.loc 1 81 0
 229 0030 0321     		movs	r1, #3
 230 0032 2000     		movs	r0, r4
 231 0034 FFF7FEFF 		bl	writeHightOrLow
 232              	.LVL43:
 233 0038 FFF7FEFF 		bl	row_matrix_3_Write
 234              	.LVL44:
  82:ledMatrix.c   ****             row_matrix_4_Write( writeHightOrLow(dataNeedWrite, 4) );
 235              		.loc 1 82 0
 236 003c 0421     		movs	r1, #4
 237 003e 2000     		movs	r0, r4
 238 0040 FFF7FEFF 		bl	writeHightOrLow
 239              	.LVL45:
 240 0044 FFF7FEFF 		bl	row_matrix_4_Write
 241              	.LVL46:
  83:ledMatrix.c   ****             row_matrix_5_Write( writeHightOrLow(dataNeedWrite, 5) );
 242              		.loc 1 83 0
 243 0048 0521     		movs	r1, #5
 244 004a 2000     		movs	r0, r4
 245 004c FFF7FEFF 		bl	writeHightOrLow
 246              	.LVL47:
 247 0050 FFF7FEFF 		bl	row_matrix_5_Write
 248              	.LVL48:
  84:ledMatrix.c   ****             row_matrix_6_Write( writeHightOrLow(dataNeedWrite, 6) );
 249              		.loc 1 84 0
 250 0054 0621     		movs	r1, #6
ARM GAS  C:\Users\NGUYEN~1\AppData\Local\Temp\ccMRIXqe.s 			page 7


 251 0056 2000     		movs	r0, r4
 252 0058 FFF7FEFF 		bl	writeHightOrLow
 253              	.LVL49:
 254 005c FFF7FEFF 		bl	row_matrix_6_Write
 255              	.LVL50:
  85:ledMatrix.c   ****             row_matrix_7_Write( writeHightOrLow(dataNeedWrite, 7) );
 256              		.loc 1 85 0
 257 0060 0721     		movs	r1, #7
 258 0062 2000     		movs	r0, r4
 259 0064 FFF7FEFF 		bl	writeHightOrLow
 260              	.LVL51:
 261 0068 FFF7FEFF 		bl	row_matrix_7_Write
 262              	.LVL52:
  86:ledMatrix.c   ****             break; 
 263              		.loc 1 86 0
 264 006c 2EE0     		b	.L23
 265              	.LVL53:
 266              	.L26:
  87:ledMatrix.c   ****         case column:
  88:ledMatrix.c   ****             col_matrix_0_Write( writeHightOrLow(dataNeedWrite, 0) );
 267              		.loc 1 88 0
 268 006e 0021     		movs	r1, #0
 269              	.LVL54:
 270 0070 FFF7FEFF 		bl	writeHightOrLow
 271              	.LVL55:
 272 0074 FFF7FEFF 		bl	col_matrix_0_Write
 273              	.LVL56:
  89:ledMatrix.c   ****             col_matrix_1_Write( writeHightOrLow(dataNeedWrite, 1) );
 274              		.loc 1 89 0
 275 0078 0121     		movs	r1, #1
 276 007a 2000     		movs	r0, r4
 277 007c FFF7FEFF 		bl	writeHightOrLow
 278              	.LVL57:
 279 0080 FFF7FEFF 		bl	col_matrix_1_Write
 280              	.LVL58:
  90:ledMatrix.c   ****             col_matrix_2_Write( writeHightOrLow(dataNeedWrite, 2) );
 281              		.loc 1 90 0
 282 0084 0221     		movs	r1, #2
 283 0086 2000     		movs	r0, r4
 284 0088 FFF7FEFF 		bl	writeHightOrLow
 285              	.LVL59:
 286 008c FFF7FEFF 		bl	col_matrix_2_Write
 287              	.LVL60:
  91:ledMatrix.c   ****             col_matrix_3_Write( writeHightOrLow(dataNeedWrite, 3) );
 288              		.loc 1 91 0
 289 0090 0321     		movs	r1, #3
 290 0092 2000     		movs	r0, r4
 291 0094 FFF7FEFF 		bl	writeHightOrLow
 292              	.LVL61:
 293 0098 FFF7FEFF 		bl	col_matrix_3_Write
 294              	.LVL62:
  92:ledMatrix.c   ****             col_matrix_4_Write( writeHightOrLow(dataNeedWrite, 4) );
 295              		.loc 1 92 0
 296 009c 0421     		movs	r1, #4
 297 009e 2000     		movs	r0, r4
 298 00a0 FFF7FEFF 		bl	writeHightOrLow
 299              	.LVL63:
ARM GAS  C:\Users\NGUYEN~1\AppData\Local\Temp\ccMRIXqe.s 			page 8


 300 00a4 FFF7FEFF 		bl	col_matrix_4_Write
 301              	.LVL64:
  93:ledMatrix.c   ****             col_matrix_5_Write( writeHightOrLow(dataNeedWrite, 5) );
 302              		.loc 1 93 0
 303 00a8 0521     		movs	r1, #5
 304 00aa 2000     		movs	r0, r4
 305 00ac FFF7FEFF 		bl	writeHightOrLow
 306              	.LVL65:
 307 00b0 FFF7FEFF 		bl	col_matrix_5_Write
 308              	.LVL66:
  94:ledMatrix.c   ****             col_matrix_6_Write( writeHightOrLow(dataNeedWrite, 6) );
 309              		.loc 1 94 0
 310 00b4 0621     		movs	r1, #6
 311 00b6 2000     		movs	r0, r4
 312 00b8 FFF7FEFF 		bl	writeHightOrLow
 313              	.LVL67:
 314 00bc FFF7FEFF 		bl	col_matrix_6_Write
 315              	.LVL68:
  95:ledMatrix.c   ****             col_matrix_7_Write( writeHightOrLow(dataNeedWrite, 7) );      
 316              		.loc 1 95 0
 317 00c0 0721     		movs	r1, #7
 318 00c2 2000     		movs	r0, r4
 319 00c4 FFF7FEFF 		bl	writeHightOrLow
 320              	.LVL69:
 321 00c8 FFF7FEFF 		bl	col_matrix_7_Write
 322              	.LVL70:
 323              	.L23:
  96:ledMatrix.c   ****     }
  97:ledMatrix.c   **** }
 324              		.loc 1 97 0
 325              		@ sp needed
 326 00cc 10BD     		pop	{r4, pc}
 327              		.cfi_endproc
 328              	.LFE33:
 329              		.size	write_data, .-write_data
 330 00ce C046     		.section	.text.light_character_k,"ax",%progbits
 331              		.align	2
 332              		.global	light_character_k
 333              		.code	16
 334              		.thumb_func
 335              		.type	light_character_k, %function
 336              	light_character_k:
 337              	.LFB34:
  98:ledMatrix.c   **** 
  99:ledMatrix.c   **** 
 100:ledMatrix.c   **** void light_character_k(int k)
 101:ledMatrix.c   **** {
 338              		.loc 1 101 0
 339              		.cfi_startproc
 340              		@ args = 0, pretend = 0, frame = 0
 341              		@ frame_needed = 0, uses_anonymous_args = 0
 342              	.LVL71:
 343 0000 70B5     		push	{r4, r5, r6, lr}
 344              		.cfi_def_cfa_offset 16
 345              		.cfi_offset 4, -16
 346              		.cfi_offset 5, -12
 347              		.cfi_offset 6, -8
ARM GAS  C:\Users\NGUYEN~1\AppData\Local\Temp\ccMRIXqe.s 			page 9


 348              		.cfi_offset 14, -4
 349 0002 0600     		movs	r6, r0
 102:ledMatrix.c   ****     int n;
 103:ledMatrix.c   ****     
 104:ledMatrix.c   ****     write_data(0xFF, column);
 350              		.loc 1 104 0
 351 0004 0121     		movs	r1, #1
 352 0006 FF20     		movs	r0, #255
 353              	.LVL72:
 354 0008 FFF7FEFF 		bl	write_data
 355              	.LVL73:
 105:ledMatrix.c   ****     write_data(0x00, row);
 356              		.loc 1 105 0
 357 000c 0021     		movs	r1, #0
 358 000e 0020     		movs	r0, #0
 359 0010 FFF7FEFF 		bl	write_data
 360              	.LVL74:
 106:ledMatrix.c   ****     
 107:ledMatrix.c   ****     for(n=0;n<8;n++)
 361              		.loc 1 107 0
 362 0014 0024     		movs	r4, #0
 363 0016 0FE0     		b	.L28
 364              	.LVL75:
 365              	.L29:
 108:ledMatrix.c   ****     {
 109:ledMatrix.c   ****         write_data( data1[k*8 + n], column );
 366              		.loc 1 109 0 discriminator 3
 367 0018 F300     		lsls	r3, r6, #3
 368 001a E318     		adds	r3, r4, r3
 369 001c 084D     		ldr	r5, .L30
 370 001e E85C     		ldrb	r0, [r5, r3]
 371 0020 0121     		movs	r1, #1
 372 0022 FFF7FEFF 		bl	write_data
 373              	.LVL76:
 110:ledMatrix.c   ****         write_data( control[n], row );
 374              		.loc 1 110 0 discriminator 3
 375 0026 2D19     		adds	r5, r5, r4
 376 0028 287A     		ldrb	r0, [r5, #8]
 377 002a 0021     		movs	r1, #0
 378 002c FFF7FEFF 		bl	write_data
 379              	.LVL77:
 111:ledMatrix.c   ****         CyDelay(1);
 380              		.loc 1 111 0 discriminator 3
 381 0030 0120     		movs	r0, #1
 382 0032 FFF7FEFF 		bl	CyDelay
 383              	.LVL78:
 107:ledMatrix.c   ****     {
 384              		.loc 1 107 0 discriminator 3
 385 0036 0134     		adds	r4, r4, #1
 386              	.LVL79:
 387              	.L28:
 107:ledMatrix.c   ****     {
 388              		.loc 1 107 0 is_stmt 0 discriminator 1
 389 0038 072C     		cmp	r4, #7
 390 003a EDDD     		ble	.L29
 112:ledMatrix.c   ****     }
 113:ledMatrix.c   **** }
ARM GAS  C:\Users\NGUYEN~1\AppData\Local\Temp\ccMRIXqe.s 			page 10


 391              		.loc 1 113 0 is_stmt 1
 392              		@ sp needed
 393              	.LVL80:
 394              	.LVL81:
 395 003c 70BD     		pop	{r4, r5, r6, pc}
 396              	.L31:
 397 003e C046     		.align	2
 398              	.L30:
 399 0040 00000000 		.word	.LANCHOR0
 400              		.cfi_endproc
 401              	.LFE34:
 402              		.size	light_character_k, .-light_character_k
 403              		.section	.text.light_from_0_to_9,"ax",%progbits
 404              		.align	2
 405              		.global	light_from_0_to_9
 406              		.code	16
 407              		.thumb_func
 408              		.type	light_from_0_to_9, %function
 409              	light_from_0_to_9:
 410              	.LFB35:
 114:ledMatrix.c   **** 
 115:ledMatrix.c   **** void light_from_0_to_9()
 116:ledMatrix.c   **** {
 411              		.loc 1 116 0
 412              		.cfi_startproc
 413              		@ args = 0, pretend = 0, frame = 0
 414              		@ frame_needed = 0, uses_anonymous_args = 0
 415 0000 70B5     		push	{r4, r5, r6, lr}
 416              		.cfi_def_cfa_offset 16
 417              		.cfi_offset 4, -16
 418              		.cfi_offset 5, -12
 419              		.cfi_offset 6, -8
 420              		.cfi_offset 14, -4
 117:ledMatrix.c   ****     int run , loops;
 118:ledMatrix.c   ****     
 119:ledMatrix.c   ****     write_data(0xFF, column);
 421              		.loc 1 119 0
 422 0002 0121     		movs	r1, #1
 423 0004 FF20     		movs	r0, #255
 424 0006 FFF7FEFF 		bl	write_data
 425              	.LVL82:
 120:ledMatrix.c   ****     write_data(0x00, row);
 426              		.loc 1 120 0
 427 000a 0021     		movs	r1, #0
 428 000c 0020     		movs	r0, #0
 429 000e FFF7FEFF 		bl	write_data
 430              	.LVL83:
 431              	.L36:
 121:ledMatrix.c   ****     
 122:ledMatrix.c   ****     while(1)
 123:ledMatrix.c   ****     {
 124:ledMatrix.c   ****         for(run=0; run<10; run++)
 432              		.loc 1 124 0
 433 0012 0025     		movs	r5, #0
 434 0014 12E0     		b	.L33
 435              	.LVL84:
 436              	.L34:
ARM GAS  C:\Users\NGUYEN~1\AppData\Local\Temp\ccMRIXqe.s 			page 11


 125:ledMatrix.c   ****         {
 126:ledMatrix.c   ****             for(loops=0; loops<500; loops++)            
 127:ledMatrix.c   ****                 light_character_k(run);
 437              		.loc 1 127 0 discriminator 3
 438 0016 2800     		movs	r0, r5
 439 0018 FFF7FEFF 		bl	light_character_k
 440              	.LVL85:
 126:ledMatrix.c   ****                 light_character_k(run);
 441              		.loc 1 126 0 discriminator 3
 442 001c 0134     		adds	r4, r4, #1
 443              	.LVL86:
 444 001e 00E0     		b	.L35
 445              	.LVL87:
 446              	.L37:
 447 0020 0024     		movs	r4, #0
 448              	.L35:
 449              	.LVL88:
 126:ledMatrix.c   ****                 light_character_k(run);
 450              		.loc 1 126 0 is_stmt 0 discriminator 1
 451 0022 F423     		movs	r3, #244
 452 0024 FF33     		adds	r3, r3, #255
 453 0026 9C42     		cmp	r4, r3
 454 0028 F5DD     		ble	.L34
 128:ledMatrix.c   ****             
 129:ledMatrix.c   ****             write_data(0xFF, column);
 455              		.loc 1 129 0 is_stmt 1 discriminator 2
 456 002a 0121     		movs	r1, #1
 457 002c FF20     		movs	r0, #255
 458 002e FFF7FEFF 		bl	write_data
 459              	.LVL89:
 130:ledMatrix.c   ****             write_data(0x00, row);
 460              		.loc 1 130 0 discriminator 2
 461 0032 0021     		movs	r1, #0
 462 0034 0020     		movs	r0, #0
 463 0036 FFF7FEFF 		bl	write_data
 464              	.LVL90:
 124:ledMatrix.c   ****         {
 465              		.loc 1 124 0 discriminator 2
 466 003a 0135     		adds	r5, r5, #1
 467              	.LVL91:
 468              	.L33:
 124:ledMatrix.c   ****         {
 469              		.loc 1 124 0 is_stmt 0 discriminator 1
 470 003c 092D     		cmp	r5, #9
 471 003e EFDD     		ble	.L37
 472 0040 E7E7     		b	.L36
 473              		.cfi_endproc
 474              	.LFE35:
 475              		.size	light_from_0_to_9, .-light_from_0_to_9
 476              		.global	data1
 477              		.global	data
 478              		.global	control
 479              		.data
 480              		.align	2
 481              		.set	.LANCHOR0,. + 0
 482              		.type	data1, %object
 483              		.size	data1, 8
ARM GAS  C:\Users\NGUYEN~1\AppData\Local\Temp\ccMRIXqe.s 			page 12


 484              	data1:
 485 0000 E7       		.byte	-25
 486 0001 E7       		.byte	-25
 487 0002 E7       		.byte	-25
 488 0003 E7       		.byte	-25
 489 0004 00       		.byte	0
 490 0005 00       		.byte	0
 491 0006 E7       		.byte	-25
 492 0007 E7       		.byte	-25
 493              		.type	control, %object
 494              		.size	control, 8
 495              	control:
 496 0008 01       		.byte	1
 497 0009 02       		.byte	2
 498 000a 04       		.byte	4
 499 000b 08       		.byte	8
 500 000c 10       		.byte	16
 501 000d 20       		.byte	32
 502 000e 40       		.byte	64
 503 000f 80       		.byte	-128
 504              		.type	data, %object
 505              		.size	data, 96
 506              	data:
 507 0010 FF       		.byte	-1
 508 0011 81       		.byte	-127
 509 0012 7E       		.byte	126
 510 0013 7E       		.byte	126
 511 0014 7E       		.byte	126
 512 0015 7E       		.byte	126
 513 0016 81       		.byte	-127
 514 0017 FF       		.byte	-1
 515 0018 FF       		.byte	-1
 516 0019 7B       		.byte	123
 517 001a 7D       		.byte	125
 518 001b 00       		.byte	0
 519 001c 00       		.byte	0
 520 001d 7F       		.byte	127
 521 001e 7F       		.byte	127
 522 001f FF       		.byte	-1
 523 0020 FF       		.byte	-1
 524 0021 86       		.byte	-122
 525 0022 B6       		.byte	-74
 526 0023 B6       		.byte	-74
 527 0024 B6       		.byte	-74
 528 0025 B6       		.byte	-74
 529 0026 B0       		.byte	-80
 530 0027 FF       		.byte	-1
 531 0028 FF       		.byte	-1
 532 0029 66       		.byte	102
 533 002a 66       		.byte	102
 534 002b 66       		.byte	102
 535 002c 66       		.byte	102
 536 002d 98       		.byte	-104
 537 002e FF       		.byte	-1
 538 002f FF       		.byte	-1
 539 0030 EF       		.byte	-17
 540 0031 E7       		.byte	-25
ARM GAS  C:\Users\NGUYEN~1\AppData\Local\Temp\ccMRIXqe.s 			page 13


 541 0032 EB       		.byte	-21
 542 0033 6D       		.byte	109
 543 0034 00       		.byte	0
 544 0035 6F       		.byte	111
 545 0036 EF       		.byte	-17
 546 0037 FF       		.byte	-1
 547 0038 FF       		.byte	-1
 548 0039 78       		.byte	120
 549 003a 7A       		.byte	122
 550 003b 7A       		.byte	122
 551 003c BA       		.byte	-70
 552 003d C6       		.byte	-58
 553 003e FF       		.byte	-1
 554 003f FF       		.byte	-1
 555 0040 FF       		.byte	-1
 556 0041 81       		.byte	-127
 557 0042 76       		.byte	118
 558 0043 76       		.byte	118
 559 0044 76       		.byte	118
 560 0045 8D       		.byte	-115
 561 0046 FF       		.byte	-1
 562 0047 FF       		.byte	-1
 563 0048 FF       		.byte	-1
 564 0049 FF       		.byte	-1
 565 004a FC       		.byte	-4
 566 004b FE       		.byte	-2
 567 004c FE       		.byte	-2
 568 004d FE       		.byte	-2
 569 004e 00       		.byte	0
 570 004f FF       		.byte	-1
 571 0050 FF       		.byte	-1
 572 0051 89       		.byte	-119
 573 0052 76       		.byte	118
 574 0053 76       		.byte	118
 575 0054 76       		.byte	118
 576 0055 89       		.byte	-119
 577 0056 FF       		.byte	-1
 578 0057 FF       		.byte	-1
 579 0058 FF       		.byte	-1
 580 0059 B9       		.byte	-71
 581 005a 76       		.byte	118
 582 005b 76       		.byte	118
 583 005c 76       		.byte	118
 584 005d 81       		.byte	-127
 585 005e FF       		.byte	-1
 586 005f FF       		.byte	-1
 587 0060 00       		.byte	0
 588 0061 00       		.byte	0
 589 0062 00       		.byte	0
 590 0063 00       		.byte	0
 591 0064 00       		.byte	0
 592 0065 00       		.byte	0
 593 0066 00       		.byte	0
 594 0067 00       		.byte	0
 595 0068 FF       		.byte	-1
 596 0069 FF       		.byte	-1
 597 006a FF       		.byte	-1
ARM GAS  C:\Users\NGUYEN~1\AppData\Local\Temp\ccMRIXqe.s 			page 14


 598 006b FF       		.byte	-1
 599 006c FF       		.byte	-1
 600 006d FF       		.byte	-1
 601 006e FF       		.byte	-1
 602 006f FF       		.byte	-1
 603              		.text
 604              	.Letext0:
 605              		.file 2 "ledMatrix.h"
 606              		.file 3 "Generated_Source\\PSoC4/row_matrix_0.h"
 607              		.file 4 "Generated_Source\\PSoC4/row_matrix_1.h"
 608              		.file 5 "Generated_Source\\PSoC4/row_matrix_2.h"
 609              		.file 6 "Generated_Source\\PSoC4/row_matrix_3.h"
 610              		.file 7 "Generated_Source\\PSoC4/row_matrix_4.h"
 611              		.file 8 "Generated_Source\\PSoC4/row_matrix_5.h"
 612              		.file 9 "Generated_Source\\PSoC4/row_matrix_6.h"
 613              		.file 10 "Generated_Source\\PSoC4/row_matrix_7.h"
 614              		.file 11 "Generated_Source\\PSoC4/col_matrix_0.h"
 615              		.file 12 "Generated_Source\\PSoC4/col_matrix_1.h"
 616              		.file 13 "Generated_Source\\PSoC4/col_matrix_2.h"
 617              		.file 14 "Generated_Source\\PSoC4/col_matrix_3.h"
 618              		.file 15 "Generated_Source\\PSoC4/col_matrix_4.h"
 619              		.file 16 "Generated_Source\\PSoC4/col_matrix_5.h"
 620              		.file 17 "Generated_Source\\PSoC4/col_matrix_6.h"
 621              		.file 18 "Generated_Source\\PSoC4/col_matrix_7.h"
 622              		.file 19 "Generated_Source\\PSoC4/CyLib.h"
 623              		.file 20 "Generated_Source\\PSoC4/cytypes.h"