ARM GAS  C:\Users\NGUYEN~1\AppData\Local\Temp\ccQsGSiA.s 			page 1


   1              		.syntax unified
   2              		.cpu cortex-m0
   3              		.fpu softvfp
   4              		.eabi_attribute 20, 1
   5              		.eabi_attribute 21, 1
   6              		.eabi_attribute 23, 3
   7              		.eabi_attribute 24, 1
   8              		.eabi_attribute 25, 1
   9              		.eabi_attribute 26, 1
  10              		.eabi_attribute 30, 1
  11              		.eabi_attribute 34, 0
  12              		.eabi_attribute 18, 4
  13              		.thumb
  14              		.syntax unified
  15              		.file	"ds1307.c"
  16              		.text
  17              	.Ltext0:
  18              		.cfi_sections	.debug_frame
  19              		.section	.text.BCD_to_DEC,"ax",%progbits
  20              		.align	2
  21              		.global	BCD_to_DEC
  22              		.code	16
  23              		.thumb_func
  24              		.type	BCD_to_DEC, %function
  25              	BCD_to_DEC:
  26              	.LFB33:
  27              		.file 1 "ds1307.c"
   1:ds1307.c      **** /* ========================================
   2:ds1307.c      ****  *
   3:ds1307.c      ****  * Copyright YOUR COMPANY, THE YEAR
   4:ds1307.c      ****  * All Rights Reserved
   5:ds1307.c      ****  * UNPUBLISHED, LICENSED SOFTWARE.
   6:ds1307.c      ****  *
   7:ds1307.c      ****  * CONFIDENTIAL AND PROPRIETARY INFORMATION
   8:ds1307.c      ****  * WHICH IS THE PROPERTY OF your company.
   9:ds1307.c      ****  *
  10:ds1307.c      ****  * ========================================
  11:ds1307.c      **** */
  12:ds1307.c      **** #include "ds1307.h"
  13:ds1307.c      **** 
  14:ds1307.c      **** uint8 BCD_to_DEC(uint8 data);
  15:ds1307.c      **** uint8 DEC_to_BCD(uint8 data);
  16:ds1307.c      **** 
  17:ds1307.c      **** uint8 BCD_to_DEC(uint8 data)
  18:ds1307.c      **** {
  28              		.loc 1 18 0
  29              		.cfi_startproc
  30              		@ args = 0, pretend = 0, frame = 0
  31              		@ frame_needed = 0, uses_anonymous_args = 0
  32              		@ link register save eliminated.
  33              	.LVL0:
  19:ds1307.c      **** 	return (data>>4)*10 + (data&0x0f);
  34              		.loc 1 19 0
  35 0000 0209     		lsrs	r2, r0, #4
  36 0002 9300     		lsls	r3, r2, #2
  37 0004 D318     		adds	r3, r2, r3
  38 0006 5A00     		lsls	r2, r3, #1
ARM GAS  C:\Users\NGUYEN~1\AppData\Local\Temp\ccQsGSiA.s 			page 2


  39 0008 0F23     		movs	r3, #15
  40 000a 1840     		ands	r0, r3
  41              	.LVL1:
  42 000c 1018     		adds	r0, r2, r0
  43 000e C0B2     		uxtb	r0, r0
  20:ds1307.c      **** }
  44              		.loc 1 20 0
  45              		@ sp needed
  46 0010 7047     		bx	lr
  47              		.cfi_endproc
  48              	.LFE33:
  49              		.size	BCD_to_DEC, .-BCD_to_DEC
  50              		.global	__aeabi_uidiv
  51              		.global	__aeabi_uidivmod
  52 0012 C046     		.section	.text.DEC_to_BCD,"ax",%progbits
  53              		.align	2
  54              		.global	DEC_to_BCD
  55              		.code	16
  56              		.thumb_func
  57              		.type	DEC_to_BCD, %function
  58              	DEC_to_BCD:
  59              	.LFB34:
  21:ds1307.c      **** 
  22:ds1307.c      **** uint8 DEC_to_BCD(uint8 data)
  23:ds1307.c      **** {
  60              		.loc 1 23 0
  61              		.cfi_startproc
  62              		@ args = 0, pretend = 0, frame = 0
  63              		@ frame_needed = 0, uses_anonymous_args = 0
  64              	.LVL2:
  65 0000 70B5     		push	{r4, r5, r6, lr}
  66              		.cfi_def_cfa_offset 16
  67              		.cfi_offset 4, -16
  68              		.cfi_offset 5, -12
  69              		.cfi_offset 6, -8
  70              		.cfi_offset 14, -4
  71 0002 0500     		movs	r5, r0
  24:ds1307.c      **** 	return (data/10)<<4 | (data%10);
  72              		.loc 1 24 0
  73 0004 0A21     		movs	r1, #10
  74 0006 FFF7FEFF 		bl	__aeabi_uidiv
  75              	.LVL3:
  76 000a C4B2     		uxtb	r4, r0
  77 000c 2401     		lsls	r4, r4, #4
  78 000e 0A21     		movs	r1, #10
  79 0010 2800     		movs	r0, r5
  80 0012 FFF7FEFF 		bl	__aeabi_uidivmod
  81              	.LVL4:
  82 0016 0C43     		orrs	r4, r1
  83 0018 E0B2     		uxtb	r0, r4
  25:ds1307.c      **** }
  84              		.loc 1 25 0
  85              		@ sp needed
  86 001a 70BD     		pop	{r4, r5, r6, pc}
  87              		.cfi_endproc
  88              	.LFE34:
  89              		.size	DEC_to_BCD, .-DEC_to_BCD
ARM GAS  C:\Users\NGUYEN~1\AppData\Local\Temp\ccQsGSiA.s 			page 3


  90              		.section	.text.ds1307_read_data,"ax",%progbits
  91              		.align	2
  92              		.global	ds1307_read_data
  93              		.code	16
  94              		.thumb_func
  95              		.type	ds1307_read_data, %function
  96              	ds1307_read_data:
  97              	.LFB35:
  26:ds1307.c      **** 
  27:ds1307.c      **** void ds1307_read_data(data_time *time)
  28:ds1307.c      **** {
  98              		.loc 1 28 0
  99              		.cfi_startproc
 100              		@ args = 0, pretend = 0, frame = 8
 101              		@ frame_needed = 0, uses_anonymous_args = 0
 102              	.LVL5:
 103 0000 30B5     		push	{r4, r5, lr}
 104              		.cfi_def_cfa_offset 12
 105              		.cfi_offset 4, -12
 106              		.cfi_offset 5, -8
 107              		.cfi_offset 14, -4
 108 0002 83B0     		sub	sp, sp, #12
 109              		.cfi_def_cfa_offset 24
 110 0004 0500     		movs	r5, r0
  29:ds1307.c      ****     uint8 result, i;    
  30:ds1307.c      ****     uint8 temp[7] = {'\0'};
 111              		.loc 1 30 0
 112 0006 0722     		movs	r2, #7
 113 0008 0021     		movs	r1, #0
 114 000a 6846     		mov	r0, sp
 115              	.LVL6:
 116 000c FFF7FEFF 		bl	memset
 117              	.LVL7:
 118              	.L4:
  31:ds1307.c      ****     
  32:ds1307.c      ****     do{
  33:ds1307.c      ****         result = i2c_master_I2CMasterSendStart(ADDRESS_SLAVE_DS1307, i2c_master_I2C_WRITE_XFER_MODE
 119              		.loc 1 33 0 discriminator 1
 120 0010 0122     		movs	r2, #1
 121 0012 0021     		movs	r1, #0
 122 0014 6820     		movs	r0, #104
 123 0016 FFF7FEFF 		bl	i2c_master_I2CMasterSendStart
 124              	.LVL8:
 125 001a C0B2     		uxtb	r0, r0
 126              	.LVL9:
  34:ds1307.c      ****     }while(result != i2c_master_I2C_MSTR_NO_ERROR);
 127              		.loc 1 34 0 discriminator 1
 128 001c 0028     		cmp	r0, #0
 129 001e F7D1     		bne	.L4
  35:ds1307.c      ****     
  36:ds1307.c      ****     i2c_master_I2CMasterWriteByte(0x00, 1);
 130              		.loc 1 36 0
 131 0020 0121     		movs	r1, #1
 132 0022 FFF7FEFF 		bl	i2c_master_I2CMasterWriteByte
 133              	.LVL10:
  37:ds1307.c      ****     
  38:ds1307.c      ****     i2c_master_I2CMasterSendRestart(ADDRESS_SLAVE_DS1307, i2c_master_I2C_READ_XFER_MODE, 1);
ARM GAS  C:\Users\NGUYEN~1\AppData\Local\Temp\ccQsGSiA.s 			page 4


 134              		.loc 1 38 0
 135 0026 0122     		movs	r2, #1
 136 0028 0121     		movs	r1, #1
 137 002a 6820     		movs	r0, #104
 138 002c FFF7FEFF 		bl	i2c_master_I2CMasterSendRestart
 139              	.LVL11:
  39:ds1307.c      ****     
  40:ds1307.c      ****     for(i=0; i<6; i++)
 140              		.loc 1 40 0
 141 0030 0024     		movs	r4, #0
 142 0032 07E0     		b	.L5
 143              	.LVL12:
 144              	.L6:
  41:ds1307.c      ****         i2c_master_I2CMasterReadByte(i2c_master_I2C_ACK_DATA, &temp[i] , 1);
 145              		.loc 1 41 0 discriminator 3
 146 0034 2100     		movs	r1, r4
 147 0036 6944     		add	r1, r1, sp
 148 0038 0122     		movs	r2, #1
 149 003a 0020     		movs	r0, #0
 150 003c FFF7FEFF 		bl	i2c_master_I2CMasterReadByte
 151              	.LVL13:
  40:ds1307.c      ****         i2c_master_I2CMasterReadByte(i2c_master_I2C_ACK_DATA, &temp[i] , 1);
 152              		.loc 1 40 0 discriminator 3
 153 0040 0134     		adds	r4, r4, #1
 154              	.LVL14:
 155 0042 E4B2     		uxtb	r4, r4
 156              	.LVL15:
 157              	.L5:
  40:ds1307.c      ****         i2c_master_I2CMasterReadByte(i2c_master_I2C_ACK_DATA, &temp[i] , 1);
 158              		.loc 1 40 0 is_stmt 0 discriminator 1
 159 0044 052C     		cmp	r4, #5
 160 0046 F5D9     		bls	.L6
  42:ds1307.c      ****         
  43:ds1307.c      ****     i2c_master_I2CMasterReadByte(i2c_master_I2C_NAK_DATA, &temp[i] , 1);
 161              		.loc 1 43 0 is_stmt 1
 162 0048 2100     		movs	r1, r4
 163 004a 6944     		add	r1, r1, sp
 164 004c 0122     		movs	r2, #1
 165 004e 0120     		movs	r0, #1
 166 0050 FFF7FEFF 		bl	i2c_master_I2CMasterReadByte
 167              	.LVL16:
  44:ds1307.c      ****     
  45:ds1307.c      ****     i2c_master_I2CMasterSendStop(1); 
 168              		.loc 1 45 0
 169 0054 0120     		movs	r0, #1
 170 0056 FFF7FEFF 		bl	i2c_master_I2CMasterSendStop
 171              	.LVL17:
  46:ds1307.c      ****     
  47:ds1307.c      ****     // Convert BCD to DEC
  48:ds1307.c      ****     time->second = BCD_to_DEC(temp[0]);
 172              		.loc 1 48 0
 173 005a 6B46     		mov	r3, sp
 174 005c 1878     		ldrb	r0, [r3]
 175 005e FFF7FEFF 		bl	BCD_to_DEC
 176              	.LVL18:
 177 0062 2870     		strb	r0, [r5]
  49:ds1307.c      ****     time->minute = BCD_to_DEC(temp[1]);
ARM GAS  C:\Users\NGUYEN~1\AppData\Local\Temp\ccQsGSiA.s 			page 5


 178              		.loc 1 49 0
 179 0064 6B46     		mov	r3, sp
 180 0066 5878     		ldrb	r0, [r3, #1]
 181 0068 FFF7FEFF 		bl	BCD_to_DEC
 182              	.LVL19:
 183 006c 6870     		strb	r0, [r5, #1]
  50:ds1307.c      ****     time->hour = BCD_to_DEC(temp[2]);
 184              		.loc 1 50 0
 185 006e 6B46     		mov	r3, sp
 186 0070 9878     		ldrb	r0, [r3, #2]
 187 0072 FFF7FEFF 		bl	BCD_to_DEC
 188              	.LVL20:
 189 0076 A870     		strb	r0, [r5, #2]
  51:ds1307.c      ****     time->day = BCD_to_DEC(temp[3]);
 190              		.loc 1 51 0
 191 0078 6B46     		mov	r3, sp
 192 007a D878     		ldrb	r0, [r3, #3]
 193 007c FFF7FEFF 		bl	BCD_to_DEC
 194              	.LVL21:
 195 0080 E870     		strb	r0, [r5, #3]
  52:ds1307.c      ****     time->date = BCD_to_DEC(temp[4]);
 196              		.loc 1 52 0
 197 0082 6B46     		mov	r3, sp
 198 0084 1879     		ldrb	r0, [r3, #4]
 199 0086 FFF7FEFF 		bl	BCD_to_DEC
 200              	.LVL22:
 201 008a 2871     		strb	r0, [r5, #4]
  53:ds1307.c      ****     time->month = BCD_to_DEC(temp[5]);
 202              		.loc 1 53 0
 203 008c 6B46     		mov	r3, sp
 204 008e 5879     		ldrb	r0, [r3, #5]
 205 0090 FFF7FEFF 		bl	BCD_to_DEC
 206              	.LVL23:
 207 0094 6871     		strb	r0, [r5, #5]
  54:ds1307.c      ****     time->year = BCD_to_DEC(temp[6]);     
 208              		.loc 1 54 0
 209 0096 6B46     		mov	r3, sp
 210 0098 9879     		ldrb	r0, [r3, #6]
 211 009a FFF7FEFF 		bl	BCD_to_DEC
 212              	.LVL24:
 213 009e A871     		strb	r0, [r5, #6]
  55:ds1307.c      **** }
 214              		.loc 1 55 0
 215 00a0 03B0     		add	sp, sp, #12
 216              		@ sp needed
 217              	.LVL25:
 218              	.LVL26:
 219 00a2 30BD     		pop	{r4, r5, pc}
 220              		.cfi_endproc
 221              	.LFE35:
 222              		.size	ds1307_read_data, .-ds1307_read_data
 223              		.section	.text.ds1307_write_data,"ax",%progbits
 224              		.align	2
 225              		.global	ds1307_write_data
 226              		.code	16
 227              		.thumb_func
 228              		.type	ds1307_write_data, %function
ARM GAS  C:\Users\NGUYEN~1\AppData\Local\Temp\ccQsGSiA.s 			page 6


 229              	ds1307_write_data:
 230              	.LFB36:
  56:ds1307.c      **** 
  57:ds1307.c      **** 
  58:ds1307.c      **** void ds1307_write_data(data_time *time)
  59:ds1307.c      **** {
 231              		.loc 1 59 0
 232              		.cfi_startproc
 233              		@ args = 0, pretend = 0, frame = 32
 234              		@ frame_needed = 0, uses_anonymous_args = 0
 235              	.LVL27:
 236 0000 30B5     		push	{r4, r5, lr}
 237              		.cfi_def_cfa_offset 12
 238              		.cfi_offset 4, -12
 239              		.cfi_offset 5, -8
 240              		.cfi_offset 14, -4
 241 0002 89B0     		sub	sp, sp, #36
 242              		.cfi_def_cfa_offset 48
 243 0004 0400     		movs	r4, r0
  60:ds1307.c      ****     uint8 result, i;
  61:ds1307.c      ****     uint32 temp[7] = {'\0'};
 244              		.loc 1 61 0
 245 0006 1C22     		movs	r2, #28
 246 0008 0021     		movs	r1, #0
 247 000a 01A8     		add	r0, sp, #4
 248              	.LVL28:
 249 000c FFF7FEFF 		bl	memset
 250              	.LVL29:
  62:ds1307.c      ****     
  63:ds1307.c      ****     // Convert DEC to BCD
  64:ds1307.c      ****     temp[0] = DEC_to_BCD(time->second);
 251              		.loc 1 64 0
 252 0010 2078     		ldrb	r0, [r4]
 253 0012 FFF7FEFF 		bl	DEC_to_BCD
 254              	.LVL30:
 255 0016 0190     		str	r0, [sp, #4]
  65:ds1307.c      ****     temp[1] = DEC_to_BCD(time->minute);
 256              		.loc 1 65 0
 257 0018 6078     		ldrb	r0, [r4, #1]
 258 001a FFF7FEFF 		bl	DEC_to_BCD
 259              	.LVL31:
 260 001e 0500     		movs	r5, r0
 261 0020 0290     		str	r0, [sp, #8]
  66:ds1307.c      ****     temp[2] = DEC_to_BCD(time->hour);
 262              		.loc 1 66 0
 263 0022 A078     		ldrb	r0, [r4, #2]
 264 0024 FFF7FEFF 		bl	DEC_to_BCD
 265              	.LVL32:
 266 0028 0390     		str	r0, [sp, #12]
  67:ds1307.c      ****     temp[3] = DEC_to_BCD(time->day);
 267              		.loc 1 67 0
 268 002a E078     		ldrb	r0, [r4, #3]
 269 002c FFF7FEFF 		bl	DEC_to_BCD
 270              	.LVL33:
 271 0030 0490     		str	r0, [sp, #16]
  68:ds1307.c      ****     temp[4] = DEC_to_BCD(time->date);
 272              		.loc 1 68 0
ARM GAS  C:\Users\NGUYEN~1\AppData\Local\Temp\ccQsGSiA.s 			page 7


 273 0032 2079     		ldrb	r0, [r4, #4]
 274 0034 FFF7FEFF 		bl	DEC_to_BCD
 275              	.LVL34:
 276 0038 0590     		str	r0, [sp, #20]
  69:ds1307.c      ****     temp[5] = DEC_to_BCD(time->minute);
 277              		.loc 1 69 0
 278 003a 0695     		str	r5, [sp, #24]
  70:ds1307.c      ****     temp[6] = DEC_to_BCD(time->year);   
 279              		.loc 1 70 0
 280 003c A079     		ldrb	r0, [r4, #6]
 281 003e FFF7FEFF 		bl	DEC_to_BCD
 282              	.LVL35:
 283 0042 0790     		str	r0, [sp, #28]
 284              	.L8:
  71:ds1307.c      ****     
  72:ds1307.c      ****     do{
  73:ds1307.c      ****         result = i2c_master_I2CMasterSendStart(ADDRESS_SLAVE_DS1307, i2c_master_I2C_WRITE_XFER_MODE
 285              		.loc 1 73 0 discriminator 1
 286 0044 0122     		movs	r2, #1
 287 0046 0021     		movs	r1, #0
 288 0048 6820     		movs	r0, #104
 289 004a FFF7FEFF 		bl	i2c_master_I2CMasterSendStart
 290              	.LVL36:
 291 004e C0B2     		uxtb	r0, r0
 292              	.LVL37:
  74:ds1307.c      ****     }while(result != i2c_master_I2C_MSTR_NO_ERROR);
 293              		.loc 1 74 0 discriminator 1
 294 0050 0028     		cmp	r0, #0
 295 0052 F7D1     		bne	.L8
  75:ds1307.c      ****     
  76:ds1307.c      ****     i2c_master_I2CMasterWriteByte((uint32)0x00, 1);
 296              		.loc 1 76 0
 297 0054 0121     		movs	r1, #1
 298 0056 FFF7FEFF 		bl	i2c_master_I2CMasterWriteByte
 299              	.LVL38:
  77:ds1307.c      ****     
  78:ds1307.c      ****     for(i=0; i<=6; i++)
 300              		.loc 1 78 0
 301 005a 0024     		movs	r4, #0
 302              	.LVL39:
 303 005c 07E0     		b	.L9
 304              	.LVL40:
 305              	.L10:
  79:ds1307.c      ****     {
  80:ds1307.c      ****         i2c_master_I2CMasterWriteByte(temp[i], 1);
 306              		.loc 1 80 0 discriminator 3
 307 005e A200     		lsls	r2, r4, #2
 308 0060 01AB     		add	r3, sp, #4
 309 0062 D058     		ldr	r0, [r2, r3]
 310 0064 0121     		movs	r1, #1
 311 0066 FFF7FEFF 		bl	i2c_master_I2CMasterWriteByte
 312              	.LVL41:
  78:ds1307.c      ****     {
 313              		.loc 1 78 0 discriminator 3
 314 006a 0134     		adds	r4, r4, #1
 315              	.LVL42:
 316 006c E4B2     		uxtb	r4, r4
ARM GAS  C:\Users\NGUYEN~1\AppData\Local\Temp\ccQsGSiA.s 			page 8


 317              	.LVL43:
 318              	.L9:
  78:ds1307.c      ****     {
 319              		.loc 1 78 0 is_stmt 0 discriminator 1
 320 006e 062C     		cmp	r4, #6
 321 0070 F5D9     		bls	.L10
  81:ds1307.c      ****     }
  82:ds1307.c      ****     
  83:ds1307.c      ****     i2c_master_I2CMasterSendStop(5);
 322              		.loc 1 83 0 is_stmt 1
 323 0072 0520     		movs	r0, #5
 324 0074 FFF7FEFF 		bl	i2c_master_I2CMasterSendStop
 325              	.LVL44:
  84:ds1307.c      **** }
 326              		.loc 1 84 0
 327 0078 09B0     		add	sp, sp, #36
 328              		@ sp needed
 329              	.LVL45:
 330 007a 30BD     		pop	{r4, r5, pc}
 331              		.cfi_endproc
 332              	.LFE36:
 333              		.size	ds1307_write_data, .-ds1307_write_data
 334              		.section	.text.init_Time_Ds1307,"ax",%progbits
 335              		.align	2
 336              		.global	init_Time_Ds1307
 337              		.code	16
 338              		.thumb_func
 339              		.type	init_Time_Ds1307, %function
 340              	init_Time_Ds1307:
 341              	.LFB37:
  85:ds1307.c      **** 
  86:ds1307.c      **** void init_Time_Ds1307(data_time *time)
  87:ds1307.c      **** {
 342              		.loc 1 87 0
 343              		.cfi_startproc
 344              		@ args = 0, pretend = 0, frame = 0
 345              		@ frame_needed = 0, uses_anonymous_args = 0
 346              		@ link register save eliminated.
 347              	.LVL46:
  88:ds1307.c      ****     (*time).second = 12;
 348              		.loc 1 88 0
 349 0000 0C23     		movs	r3, #12
 350 0002 0370     		strb	r3, [r0]
  89:ds1307.c      ****     (*time).minute = 12;
 351              		.loc 1 89 0
 352 0004 4370     		strb	r3, [r0, #1]
  90:ds1307.c      ****     (*time).hour = 12;
 353              		.loc 1 90 0
 354 0006 8370     		strb	r3, [r0, #2]
  91:ds1307.c      ****     (*time).day = 0;
 355              		.loc 1 91 0
 356 0008 0022     		movs	r2, #0
 357 000a C270     		strb	r2, [r0, #3]
  92:ds1307.c      ****     (*time).date = 12;
 358              		.loc 1 92 0
 359 000c 0371     		strb	r3, [r0, #4]
  93:ds1307.c      ****     (*time).month = 12;
ARM GAS  C:\Users\NGUYEN~1\AppData\Local\Temp\ccQsGSiA.s 			page 9


 360              		.loc 1 93 0
 361 000e 4371     		strb	r3, [r0, #5]
  94:ds1307.c      ****     (*time).year = 12;
 362              		.loc 1 94 0
 363 0010 8371     		strb	r3, [r0, #6]
  95:ds1307.c      **** }
 364              		.loc 1 95 0
 365              		@ sp needed
 366 0012 7047     		bx	lr
 367              		.cfi_endproc
 368              	.LFE37:
 369              		.size	init_Time_Ds1307, .-init_Time_Ds1307
 370              		.text
 371              	.Letext0:
 372              		.file 2 "Generated_Source\\PSoC4/cytypes.h"
 373              		.file 3 "ds1307.h"
 374              		.file 4 "Generated_Source\\PSoC4/i2c_master_I2C.h"