ARM GAS  C:\Users\NGUYEN~1\AppData\Local\Temp\ccxTUDPh.s 			page 1


   1              		.syntax unified
   2              		.cpu cortex-m0
   3              		.fpu softvfp
   4              		.eabi_attribute 20, 1
   5              		.eabi_attribute 21, 1
   6              		.eabi_attribute 23, 3
   7              		.eabi_attribute 24, 1
   8              		.eabi_attribute 25, 1
   9              		.eabi_attribute 26, 1
  10              		.eabi_attribute 30, 1
  11              		.eabi_attribute 34, 0
  12              		.eabi_attribute 18, 4
  13              		.thumb
  14              		.syntax unified
  15              		.file	"main.c"
  16              		.text
  17              	.Ltext0:
  18              		.cfi_sections	.debug_frame
  19              		.section	.text.system_Initialization,"ax",%progbits
  20              		.align	2
  21              		.global	system_Initialization
  22              		.code	16
  23              		.thumb_func
  24              		.type	system_Initialization, %function
  25              	system_Initialization:
  26              	.LFB34:
  27              		.file 1 "main.c"
   1:main.c        **** /* ========================================
   2:main.c        ****  *
   3:main.c        ****  * Copyright YOUR COMPANY, THE YEAR
   4:main.c        ****  * All Rights Reserved
   5:main.c        ****  * UNPUBLISHED, LICENSED SOFTWARE.
   6:main.c        ****  *
   7:main.c        ****  * CONFIDENTIAL AND PROPRIETARY INFORMATION
   8:main.c        ****  * WHICH IS THE PROPERTY OF your company.
   9:main.c        ****  *
  10:main.c        ****  * ========================================
  11:main.c        **** */
  12:main.c        **** #include "main.h"
  13:main.c        **** 
  14:main.c        **** int main(void)
  15:main.c        **** {
  16:main.c        ****     CyGlobalIntEnable; /* Enable global interrupts. */
  17:main.c        ****     
  18:main.c        ****     data_time time;
  19:main.c        ****     char txString[50];
  20:main.c        ****     
  21:main.c        ****     system_Initialization();
  22:main.c        ****     
  23:main.c        ****     Pin_Led_Write(0);
  24:main.c        ****     
  25:main.c        ****     uart_UartPutString("\nStart\n");
  26:main.c        ****     
  27:main.c        ****     /*
  28:main.c        ****     init_Timer_Start(&time);
  29:main.c        ****     time_String_Concatenation(time, txString);
  30:main.c        ****     uart_UartPutString(txString);
ARM GAS  C:\Users\NGUYEN~1\AppData\Local\Temp\ccxTUDPh.s 			page 2


  31:main.c        ****     CyDelay(1000);
  32:main.c        ****     
  33:main.c        ****     ds1307_write_data(&time); 
  34:main.c        ****     time_String_Concatenation(time, txString);
  35:main.c        ****     uart_UartPutString(txString);
  36:main.c        ****     uart_UartPutString("\n\nStop Start\n");
  37:main.c        ****     CyDelay(1000);
  38:main.c        ****     
  39:main.c        ****     Pin_Led_Write(0);
  40:main.c        ****     
  41:main.c        ****     CyDelay(1000);
  42:main.c        ****     */
  43:main.c        ****     
  44:main.c        ****     for(;;)
  45:main.c        ****     {
  46:main.c        ****         
  47:main.c        ****         Pin_Led_Write(1);
  48:main.c        ****         ds1307_read_data(&time); 
  49:main.c        ****         
  50:main.c        ****         time_String_Concatenation(time, txString);
  51:main.c        ****         /*
  52:main.c        ****         uart_UartPutString(txString);
  53:main.c        ****         
  54:main.c        ****         CyDelay(1000);
  55:main.c        ****         */
  56:main.c        ****     }
  57:main.c        **** }
  58:main.c        **** 
  59:main.c        **** void system_Initialization()
  60:main.c        **** {
  28              		.loc 1 60 0
  29              		.cfi_startproc
  30              		@ args = 0, pretend = 0, frame = 0
  31              		@ frame_needed = 0, uses_anonymous_args = 0
  32 0000 10B5     		push	{r4, lr}
  33              		.cfi_def_cfa_offset 8
  34              		.cfi_offset 4, -8
  35              		.cfi_offset 14, -4
  61:main.c        ****     uart_Start();
  36              		.loc 1 61 0
  37 0002 FFF7FEFF 		bl	uart_Start
  38              	.LVL0:
  62:main.c        ****     
  63:main.c        ****     i2c_master_Start();
  39              		.loc 1 63 0
  40 0006 FFF7FEFF 		bl	i2c_master_Start
  41              	.LVL1:
  64:main.c        **** }
  42              		.loc 1 64 0
  43              		@ sp needed
  44 000a 10BD     		pop	{r4, pc}
  45              		.cfi_endproc
  46              	.LFE34:
  47              		.size	system_Initialization, .-system_Initialization
  48              		.section	.text.main,"ax",%progbits
  49              		.align	2
  50              		.global	main
ARM GAS  C:\Users\NGUYEN~1\AppData\Local\Temp\ccxTUDPh.s 			page 3


  51              		.code	16
  52              		.thumb_func
  53              		.type	main, %function
  54              	main:
  55              	.LFB33:
  15:main.c        ****     CyGlobalIntEnable; /* Enable global interrupts. */
  56              		.loc 1 15 0
  57              		.cfi_startproc
  58              		@ args = 0, pretend = 0, frame = 64
  59              		@ frame_needed = 0, uses_anonymous_args = 0
  60 0000 00B5     		push	{lr}
  61              		.cfi_def_cfa_offset 4
  62              		.cfi_offset 14, -4
  63 0002 91B0     		sub	sp, sp, #68
  64              		.cfi_def_cfa_offset 72
  16:main.c        ****     
  65              		.loc 1 16 0
  66              		.syntax divided
  67              	@ 16 "main.c" 1
  68 0004 62B6     		CPSIE   i
  69              	@ 0 "" 2
  21:main.c        ****     
  70              		.loc 1 21 0
  71              		.thumb
  72              		.syntax unified
  73 0006 FFF7FEFF 		bl	system_Initialization
  74              	.LVL2:
  23:main.c        ****     
  75              		.loc 1 23 0
  76 000a 0020     		movs	r0, #0
  77 000c FFF7FEFF 		bl	Pin_Led_Write
  78              	.LVL3:
  25:main.c        ****     
  79              		.loc 1 25 0
  80 0010 0748     		ldr	r0, .L4
  81 0012 FFF7FEFF 		bl	uart_UartPutString
  82              	.LVL4:
  83              	.L3:
  47:main.c        ****         ds1307_read_data(&time); 
  84              		.loc 1 47 0 discriminator 1
  85 0016 0120     		movs	r0, #1
  86 0018 FFF7FEFF 		bl	Pin_Led_Write
  87              	.LVL5:
  48:main.c        ****         
  88              		.loc 1 48 0 discriminator 1
  89 001c 0EA8     		add	r0, sp, #56
  90 001e FFF7FEFF 		bl	ds1307_read_data
  91              	.LVL6:
  50:main.c        ****         /*
  92              		.loc 1 50 0 discriminator 1
  93 0022 01AA     		add	r2, sp, #4
  94 0024 0E98     		ldr	r0, [sp, #56]
  95 0026 0F99     		ldr	r1, [sp, #60]
  96 0028 FFF7FEFF 		bl	time_String_Concatenation
  97              	.LVL7:
  98 002c F3E7     		b	.L3
  99              	.L5:
ARM GAS  C:\Users\NGUYEN~1\AppData\Local\Temp\ccxTUDPh.s 			page 4


 100 002e C046     		.align	2
 101              	.L4:
 102 0030 00000000 		.word	.LC0
 103              		.cfi_endproc
 104              	.LFE33:
 105              		.size	main, .-main
 106              		.section	.rodata.str1.4,"aMS",%progbits,1
 107              		.align	2
 108              	.LC0:
 109 0000 0A537461 		.ascii	"\012Start\012\000"
 109      72740A00 
 110              		.text
 111              	.Letext0:
 112              		.file 2 "ds1307.h"
 113              		.file 3 "Generated_Source\\PSoC4/cytypes.h"
 114              		.file 4 "Generated_Source\\PSoC4/uart.h"
 115              		.file 5 "Generated_Source\\PSoC4/i2c_master.h"
 116              		.file 6 "Generated_Source\\PSoC4/Pin_Led.h"
 117              		.file 7 "Generated_Source\\PSoC4/uart_SPI_UART.h"
 118              		.file 8 "uart.h"