ARM GAS  C:\Users\NGUYEN~1\AppData\Local\Temp\ccsf2lrH.s 			page 1


   1              		.syntax unified
   2              		.cpu cortex-m0
   3              		.fpu softvfp
   4              		.eabi_attribute 20, 1
   5              		.eabi_attribute 21, 1
   6              		.eabi_attribute 23, 3
   7              		.eabi_attribute 24, 1
   8              		.eabi_attribute 25, 1
   9              		.eabi_attribute 26, 1
  10              		.eabi_attribute 30, 1
  11              		.eabi_attribute 34, 0
  12              		.eabi_attribute 18, 4
  13              		.thumb
  14              		.syntax unified
  15              		.file	"servo.c"
  16              		.text
  17              	.Ltext0:
  18              		.cfi_sections	.debug_frame
  19              		.section	.text.from90DegreeTo180Degree,"ax",%progbits
  20              		.align	2
  21              		.global	from90DegreeTo180Degree
  22              		.code	16
  23              		.thumb_func
  24              		.type	from90DegreeTo180Degree, %function
  25              	from90DegreeTo180Degree:
  26              	.LFB32:
  27              		.file 1 "servo.c"
   1:servo.c       **** /* ========================================
   2:servo.c       ****  *
   3:servo.c       ****  * Copyright YOUR COMPANY, THE YEAR
   4:servo.c       ****  * All Rights Reserved
   5:servo.c       ****  * UNPUBLISHED, LICENSED SOFTWARE.
   6:servo.c       ****  *
   7:servo.c       ****  * CONFIDENTIAL AND PROPRIETARY INFORMATION
   8:servo.c       ****  * WHICH IS THE PROPERTY OF your company.
   9:servo.c       ****  *
  10:servo.c       ****  * ========================================
  11:servo.c       **** */
  12:servo.c       **** #include "servo.h"
  13:servo.c       **** 
  14:servo.c       **** void from90DegreeTo180Degree(int *value_compare)
  15:servo.c       **** {
  28              		.loc 1 15 0
  29              		.cfi_startproc
  30              		@ args = 0, pretend = 0, frame = 0
  31              		@ frame_needed = 0, uses_anonymous_args = 0
  32              	.LVL0:
  33 0000 10B5     		push	{r4, lr}
  34              		.cfi_def_cfa_offset 8
  35              		.cfi_offset 4, -8
  36              		.cfi_offset 14, -4
  16:servo.c       ****     (*value_compare == 1000) ? (*value_compare = 2000) : (*value_compare = 1000);
  37              		.loc 1 16 0
  38 0002 FA23     		movs	r3, #250
  39 0004 9B00     		lsls	r3, r3, #2
  40 0006 0268     		ldr	r2, [r0]
  41 0008 9A42     		cmp	r2, r3
ARM GAS  C:\Users\NGUYEN~1\AppData\Local\Temp\ccsf2lrH.s 			page 2


  42 000a 03D1     		bne	.L2
  43              		.loc 1 16 0 is_stmt 0 discriminator 1
  44 000c FA23     		movs	r3, #250
  45 000e DB00     		lsls	r3, r3, #3
  46 0010 0360     		str	r3, [r0]
  47 0012 02E0     		b	.L3
  48              	.L2:
  49              		.loc 1 16 0 discriminator 2
  50 0014 FA23     		movs	r3, #250
  51 0016 9B00     		lsls	r3, r3, #2
  52 0018 0360     		str	r3, [r0]
  53              	.L3:
  17:servo.c       ****     
  18:servo.c       ****     pwm_WriteCompare(*value_compare);
  54              		.loc 1 18 0 is_stmt 1
  55 001a 0068     		ldr	r0, [r0]
  56              	.LVL1:
  57 001c FFF7FEFF 		bl	pwm_WriteCompare
  58              	.LVL2:
  19:servo.c       **** }
  59              		.loc 1 19 0
  60              		@ sp needed
  61 0020 10BD     		pop	{r4, pc}
  62              		.cfi_endproc
  63              	.LFE32:
  64              		.size	from90DegreeTo180Degree, .-from90DegreeTo180Degree
  65 0022 C046     		.section	.text.from0DegreeTo180Degree,"ax",%progbits
  66              		.align	2
  67              		.global	from0DegreeTo180Degree
  68              		.code	16
  69              		.thumb_func
  70              		.type	from0DegreeTo180Degree, %function
  71              	from0DegreeTo180Degree:
  72              	.LFB33:
  20:servo.c       **** 
  21:servo.c       **** void from0DegreeTo180Degree(int *value_compare)
  22:servo.c       **** {
  73              		.loc 1 22 0
  74              		.cfi_startproc
  75              		@ args = 0, pretend = 0, frame = 0
  76              		@ frame_needed = 0, uses_anonymous_args = 0
  77              	.LVL3:
  78 0000 10B5     		push	{r4, lr}
  79              		.cfi_def_cfa_offset 8
  80              		.cfi_offset 4, -8
  81              		.cfi_offset 14, -4
  23:servo.c       ****     (*value_compare == 900) ? (*value_compare = 2000) : (*value_compare = 900);
  82              		.loc 1 23 0
  83 0002 E123     		movs	r3, #225
  84 0004 9B00     		lsls	r3, r3, #2
  85 0006 0268     		ldr	r2, [r0]
  86 0008 9A42     		cmp	r2, r3
  87 000a 03D1     		bne	.L5
  88              		.loc 1 23 0 is_stmt 0 discriminator 1
  89 000c FA23     		movs	r3, #250
  90 000e DB00     		lsls	r3, r3, #3
  91 0010 0360     		str	r3, [r0]
ARM GAS  C:\Users\NGUYEN~1\AppData\Local\Temp\ccsf2lrH.s 			page 3


  92 0012 02E0     		b	.L6
  93              	.L5:
  94              		.loc 1 23 0 discriminator 2
  95 0014 E123     		movs	r3, #225
  96 0016 9B00     		lsls	r3, r3, #2
  97 0018 0360     		str	r3, [r0]
  98              	.L6:
  24:servo.c       ****     
  25:servo.c       ****     pwm_WriteCompare(*value_compare);
  99              		.loc 1 25 0 is_stmt 1
 100 001a 0068     		ldr	r0, [r0]
 101              	.LVL4:
 102 001c FFF7FEFF 		bl	pwm_WriteCompare
 103              	.LVL5:
  26:servo.c       **** }
 104              		.loc 1 26 0
 105              		@ sp needed
 106 0020 10BD     		pop	{r4, pc}
 107              		.cfi_endproc
 108              	.LFE33:
 109              		.size	from0DegreeTo180Degree, .-from0DegreeTo180Degree
 110 0022 C046     		.section	.text.location0Degree,"ax",%progbits
 111              		.align	2
 112              		.global	location0Degree
 113              		.code	16
 114              		.thumb_func
 115              		.type	location0Degree, %function
 116              	location0Degree:
 117              	.LFB34:
  27:servo.c       **** 
  28:servo.c       **** // Location 180 degree of circle
  29:servo.c       **** void location0Degree()
  30:servo.c       **** {
 118              		.loc 1 30 0
 119              		.cfi_startproc
 120              		@ args = 0, pretend = 0, frame = 0
 121              		@ frame_needed = 0, uses_anonymous_args = 0
 122 0000 10B5     		push	{r4, lr}
 123              		.cfi_def_cfa_offset 8
 124              		.cfi_offset 4, -8
 125              		.cfi_offset 14, -4
 126              	.LVL6:
  31:servo.c       ****     int value_compare = 900;
  32:servo.c       ****     
  33:servo.c       ****     pwm_WriteCompare(value_compare);
 127              		.loc 1 33 0
 128 0002 E120     		movs	r0, #225
 129 0004 8000     		lsls	r0, r0, #2
 130 0006 FFF7FEFF 		bl	pwm_WriteCompare
 131              	.LVL7:
  34:servo.c       **** }
 132              		.loc 1 34 0
 133              		@ sp needed
 134 000a 10BD     		pop	{r4, pc}
 135              		.cfi_endproc
 136              	.LFE34:
 137              		.size	location0Degree, .-location0Degree
ARM GAS  C:\Users\NGUYEN~1\AppData\Local\Temp\ccsf2lrH.s 			page 4


 138              		.section	.text.location90Degree,"ax",%progbits
 139              		.align	2
 140              		.global	location90Degree
 141              		.code	16
 142              		.thumb_func
 143              		.type	location90Degree, %function
 144              	location90Degree:
 145              	.LFB35:
  35:servo.c       **** 
  36:servo.c       **** // Location 90 degree of circle
  37:servo.c       **** void location90Degree()
  38:servo.c       **** {
 146              		.loc 1 38 0
 147              		.cfi_startproc
 148              		@ args = 0, pretend = 0, frame = 0
 149              		@ frame_needed = 0, uses_anonymous_args = 0
 150 0000 10B5     		push	{r4, lr}
 151              		.cfi_def_cfa_offset 8
 152              		.cfi_offset 4, -8
 153              		.cfi_offset 14, -4
 154              	.LVL8:
  39:servo.c       ****     int value_compare = 1500;
  40:servo.c       ****     
  41:servo.c       ****     pwm_WriteCompare(value_compare);
 155              		.loc 1 41 0
 156 0002 0248     		ldr	r0, .L9
 157 0004 FFF7FEFF 		bl	pwm_WriteCompare
 158              	.LVL9:
  42:servo.c       **** }
 159              		.loc 1 42 0
 160              		@ sp needed
 161 0008 10BD     		pop	{r4, pc}
 162              	.L10:
 163 000a C046     		.align	2
 164              	.L9:
 165 000c DC050000 		.word	1500
 166              		.cfi_endproc
 167              	.LFE35:
 168              		.size	location90Degree, .-location90Degree
 169              		.section	.text.location180Degree,"ax",%progbits
 170              		.align	2
 171              		.global	location180Degree
 172              		.code	16
 173              		.thumb_func
 174              		.type	location180Degree, %function
 175              	location180Degree:
 176              	.LFB36:
  43:servo.c       **** 
  44:servo.c       **** // Location 0 degree of circle
  45:servo.c       **** void location180Degree()
  46:servo.c       **** {
 177              		.loc 1 46 0
 178              		.cfi_startproc
 179              		@ args = 0, pretend = 0, frame = 0
 180              		@ frame_needed = 0, uses_anonymous_args = 0
 181 0000 10B5     		push	{r4, lr}
 182              		.cfi_def_cfa_offset 8
ARM GAS  C:\Users\NGUYEN~1\AppData\Local\Temp\ccsf2lrH.s 			page 5


 183              		.cfi_offset 4, -8
 184              		.cfi_offset 14, -4
 185              	.LVL10:
  47:servo.c       ****     int value_compare = 2000;
  48:servo.c       ****     
  49:servo.c       ****     pwm_WriteCompare(value_compare);
 186              		.loc 1 49 0
 187 0002 FA20     		movs	r0, #250
 188 0004 C000     		lsls	r0, r0, #3
 189 0006 FFF7FEFF 		bl	pwm_WriteCompare
 190              	.LVL11:
  50:servo.c       **** }
 191              		.loc 1 50 0
 192              		@ sp needed
 193 000a 10BD     		pop	{r4, pc}
 194              		.cfi_endproc
 195              	.LFE36:
 196              		.size	location180Degree, .-location180Degree
 197              		.text
 198              	.Letext0:
 199              		.file 2 "Generated_Source\\PSoC4/pwm.h"