ARM GAS  C:\Users\NGUYEN~1\AppData\Local\Temp\cc3DDwGj.s 			page 1


   1              		.syntax unified
   2              		.cpu cortex-m0
   3              		.fpu softvfp
   4              		.eabi_attribute 20, 1
   5              		.eabi_attribute 21, 1
   6              		.eabi_attribute 23, 3
   7              		.eabi_attribute 24, 1
   8              		.eabi_attribute 25, 1
   9              		.eabi_attribute 26, 1
  10              		.eabi_attribute 30, 1
  11              		.eabi_attribute 34, 0
  12              		.eabi_attribute 18, 4
  13              		.thumb
  14              		.syntax unified
  15              		.file	"main.c"
  16              		.text
  17              	.Ltext0:
  18              		.cfi_sections	.debug_frame
  19              		.section	.text.configSystem,"ax",%progbits
  20              		.align	2
  21              		.global	configSystem
  22              		.code	16
  23              		.thumb_func
  24              		.type	configSystem, %function
  25              	configSystem:
  26              	.LFB33:
  27              		.file 1 "main.c"
   1:main.c        **** /* ========================================
   2:main.c        ****  *
   3:main.c        ****  * Copyright YOUR COMPANY, THE YEAR
   4:main.c        ****  * All Rights Reserved
   5:main.c        ****  * UNPUBLISHED, LICENSED SOFTWARE.
   6:main.c        ****  *
   7:main.c        ****  * CONFIDENTIAL AND PROPRIETARY INFORMATION
   8:main.c        ****  * WHICH IS THE PROPERTY OF your company.
   9:main.c        ****  *
  10:main.c        ****  * ========================================
  11:main.c        **** */
  12:main.c        **** #include "project.h"
  13:main.c        **** #include "main.h"
  14:main.c        **** 
  15:main.c        **** #include "servo.h"
  16:main.c        **** #include "ledSingle.h"
  17:main.c        **** 
  18:main.c        **** int main(void)
  19:main.c        **** {
  20:main.c        ****     CyGlobalIntEnable; /* Enable global interrupts. */
  21:main.c        ****     
  22:main.c        ****     configSystem();
  23:main.c        ****     
  24:main.c        ****     int value = 50;
  25:main.c        ****     
  26:main.c        ****     for(;;)
  27:main.c        ****     {
  28:main.c        ****         value = 50;
  29:main.c        ****         from0DegreeTo180Degree(&value);
  30:main.c        ****         CyDelay(1000);
ARM GAS  C:\Users\NGUYEN~1\AppData\Local\Temp\cc3DDwGj.s 			page 2


  31:main.c        ****         
  32:main.c        ****         value = 100;
  33:main.c        ****         from0DegreeTo180Degree(&value);
  34:main.c        ****         CyDelay(1000);
  35:main.c        ****     }
  36:main.c        **** }
  37:main.c        **** 
  38:main.c        **** void configSystem()
  39:main.c        **** {
  28              		.loc 1 39 0
  29              		.cfi_startproc
  30              		@ args = 0, pretend = 0, frame = 0
  31              		@ frame_needed = 0, uses_anonymous_args = 0
  32 0000 10B5     		push	{r4, lr}
  33              		.cfi_def_cfa_offset 8
  34              		.cfi_offset 4, -8
  35              		.cfi_offset 14, -4
  40:main.c        ****     pwm_Start();
  36              		.loc 1 40 0
  37 0002 FFF7FEFF 		bl	pwm_Start
  38              	.LVL0:
  41:main.c        **** }
  39              		.loc 1 41 0
  40              		@ sp needed
  41 0006 10BD     		pop	{r4, pc}
  42              		.cfi_endproc
  43              	.LFE33:
  44              		.size	configSystem, .-configSystem
  45              		.section	.text.main,"ax",%progbits
  46              		.align	2
  47              		.global	main
  48              		.code	16
  49              		.thumb_func
  50              		.type	main, %function
  51              	main:
  52              	.LFB32:
  19:main.c        ****     CyGlobalIntEnable; /* Enable global interrupts. */
  53              		.loc 1 19 0
  54              		.cfi_startproc
  55              		@ args = 0, pretend = 0, frame = 8
  56              		@ frame_needed = 0, uses_anonymous_args = 0
  57 0000 10B5     		push	{r4, lr}
  58              		.cfi_def_cfa_offset 8
  59              		.cfi_offset 4, -8
  60              		.cfi_offset 14, -4
  61 0002 82B0     		sub	sp, sp, #8
  62              		.cfi_def_cfa_offset 16
  20:main.c        ****     
  63              		.loc 1 20 0
  64              		.syntax divided
  65              	@ 20 "main.c" 1
  66 0004 62B6     		CPSIE   i
  67              	@ 0 "" 2
  22:main.c        ****     
  68              		.loc 1 22 0
  69              		.thumb
  70              		.syntax unified
ARM GAS  C:\Users\NGUYEN~1\AppData\Local\Temp\cc3DDwGj.s 			page 3


  71 0006 FFF7FEFF 		bl	configSystem
  72              	.LVL1:
  73              	.L3:
  28:main.c        ****         from0DegreeTo180Degree(&value);
  74              		.loc 1 28 0 discriminator 1
  75 000a 3223     		movs	r3, #50
  76 000c 0193     		str	r3, [sp, #4]
  29:main.c        ****         CyDelay(1000);
  77              		.loc 1 29 0 discriminator 1
  78 000e 01A8     		add	r0, sp, #4
  79 0010 FFF7FEFF 		bl	from0DegreeTo180Degree
  80              	.LVL2:
  30:main.c        ****         
  81              		.loc 1 30 0 discriminator 1
  82 0014 FA24     		movs	r4, #250
  83 0016 A400     		lsls	r4, r4, #2
  84 0018 2000     		movs	r0, r4
  85 001a FFF7FEFF 		bl	CyDelay
  86              	.LVL3:
  32:main.c        ****         from0DegreeTo180Degree(&value);
  87              		.loc 1 32 0 discriminator 1
  88 001e 6423     		movs	r3, #100
  89 0020 0193     		str	r3, [sp, #4]
  33:main.c        ****         CyDelay(1000);
  90              		.loc 1 33 0 discriminator 1
  91 0022 01A8     		add	r0, sp, #4
  92 0024 FFF7FEFF 		bl	from0DegreeTo180Degree
  93              	.LVL4:
  34:main.c        ****     }
  94              		.loc 1 34 0 discriminator 1
  95 0028 2000     		movs	r0, r4
  96 002a FFF7FEFF 		bl	CyDelay
  97              	.LVL5:
  98 002e ECE7     		b	.L3
  99              		.cfi_endproc
 100              	.LFE32:
 101              		.size	main, .-main
 102              		.text
 103              	.Letext0:
 104              		.file 2 "Generated_Source\\PSoC4/pwm.h"
 105              		.file 3 "servo.h"
 106              		.file 4 "Generated_Source\\PSoC4/CyLib.h"