ARM GAS  C:\Users\NGUYEN~1\AppData\Local\Temp\ccaNqhoC.s 			page 1


   1              		.syntax unified
   2              		.cpu cortex-m0
   3              		.fpu softvfp
   4              		.eabi_attribute 20, 1
   5              		.eabi_attribute 21, 1
   6              		.eabi_attribute 23, 3
   7              		.eabi_attribute 24, 1
   8              		.eabi_attribute 25, 1
   9              		.eabi_attribute 26, 1
  10              		.eabi_attribute 30, 1
  11              		.eabi_attribute 34, 0
  12              		.eabi_attribute 18, 4
  13              		.thumb
  14              		.syntax unified
  15              		.file	"servo.c"
  16              		.text
  17              	.Ltext0:
  18              		.cfi_sections	.debug_frame
  19              		.section	.text.from90DegreeTo180Degree,"ax",%progbits
  20              		.align	2
  21              		.global	from90DegreeTo180Degree
  22              		.code	16
  23              		.thumb_func
  24              		.type	from90DegreeTo180Degree, %function
  25              	from90DegreeTo180Degree:
  26              	.LFB32:
  27              		.file 1 "servo.c"
   1:servo.c       **** /* ========================================
   2:servo.c       ****  *
   3:servo.c       ****  * Copyright YOUR COMPANY, THE YEAR
   4:servo.c       ****  * All Rights Reserved
   5:servo.c       ****  * UNPUBLISHED, LICENSED SOFTWARE.
   6:servo.c       ****  *
   7:servo.c       ****  * CONFIDENTIAL AND PROPRIETARY INFORMATION
   8:servo.c       ****  * WHICH IS THE PROPERTY OF your company.
   9:servo.c       ****  *
  10:servo.c       ****  * ========================================
  11:servo.c       **** */
  12:servo.c       **** #include "project.h"
  13:servo.c       **** #include "servo.h"
  14:servo.c       **** 
  15:servo.c       **** /*
  16:servo.c       ****     20ms  --> 0.02s  --> 50Hz --> clock 50kHz
  17:servo.c       ****                               --> period 1000
  18:servo.c       ****                               --> compear 500 --> 500/1000 = 50%
  19:servo.c       **** */
  20:servo.c       **** void from90DegreeTo180Degree(int *value_compare)
  21:servo.c       **** {
  28              		.loc 1 21 0
  29              		.cfi_startproc
  30              		@ args = 0, pretend = 0, frame = 0
  31              		@ frame_needed = 0, uses_anonymous_args = 0
  32              	.LVL0:
  33 0000 10B5     		push	{r4, lr}
  34              		.cfi_def_cfa_offset 8
  35              		.cfi_offset 4, -8
  36              		.cfi_offset 14, -4
ARM GAS  C:\Users\NGUYEN~1\AppData\Local\Temp\ccaNqhoC.s 			page 2


  22:servo.c       ****     (*value_compare == 75) ? (*value_compare = 100) : (*value_compare = 75);
  37              		.loc 1 22 0
  38 0002 0368     		ldr	r3, [r0]
  39 0004 4B2B     		cmp	r3, #75
  40 0006 02D1     		bne	.L2
  41              		.loc 1 22 0 is_stmt 0 discriminator 1
  42 0008 1933     		adds	r3, r3, #25
  43 000a 0360     		str	r3, [r0]
  44 000c 01E0     		b	.L3
  45              	.L2:
  46              		.loc 1 22 0 discriminator 2
  47 000e 4B23     		movs	r3, #75
  48 0010 0360     		str	r3, [r0]
  49              	.L3:
  23:servo.c       ****     
  24:servo.c       ****     pwm_WriteCompare(*value_compare);
  50              		.loc 1 24 0 is_stmt 1
  51 0012 0068     		ldr	r0, [r0]
  52              	.LVL1:
  53 0014 FFF7FEFF 		bl	pwm_WriteCompare
  54              	.LVL2:
  25:servo.c       **** }
  55              		.loc 1 25 0
  56              		@ sp needed
  57 0018 10BD     		pop	{r4, pc}
  58              		.cfi_endproc
  59              	.LFE32:
  60              		.size	from90DegreeTo180Degree, .-from90DegreeTo180Degree
  61 001a C046     		.section	.text.from0DegreeTo180Degree,"ax",%progbits
  62              		.align	2
  63              		.global	from0DegreeTo180Degree
  64              		.code	16
  65              		.thumb_func
  66              		.type	from0DegreeTo180Degree, %function
  67              	from0DegreeTo180Degree:
  68              	.LFB33:
  26:servo.c       **** 
  27:servo.c       **** void from0DegreeTo180Degree(int *value_compare)
  28:servo.c       **** {
  69              		.loc 1 28 0
  70              		.cfi_startproc
  71              		@ args = 0, pretend = 0, frame = 0
  72              		@ frame_needed = 0, uses_anonymous_args = 0
  73              	.LVL3:
  74 0000 10B5     		push	{r4, lr}
  75              		.cfi_def_cfa_offset 8
  76              		.cfi_offset 4, -8
  77              		.cfi_offset 14, -4
  29:servo.c       ****     (*value_compare == 50) ? (*value_compare = 100) : (*value_compare = 50);
  78              		.loc 1 29 0
  79 0002 0368     		ldr	r3, [r0]
  80 0004 322B     		cmp	r3, #50
  81 0006 02D1     		bne	.L5
  82              		.loc 1 29 0 is_stmt 0 discriminator 1
  83 0008 3233     		adds	r3, r3, #50
  84 000a 0360     		str	r3, [r0]
  85 000c 01E0     		b	.L6
ARM GAS  C:\Users\NGUYEN~1\AppData\Local\Temp\ccaNqhoC.s 			page 3


  86              	.L5:
  87              		.loc 1 29 0 discriminator 2
  88 000e 3223     		movs	r3, #50
  89 0010 0360     		str	r3, [r0]
  90              	.L6:
  30:servo.c       ****     
  31:servo.c       ****     pwm_WriteCompare(*value_compare);
  91              		.loc 1 31 0 is_stmt 1
  92 0012 0068     		ldr	r0, [r0]
  93              	.LVL4:
  94 0014 FFF7FEFF 		bl	pwm_WriteCompare
  95              	.LVL5:
  32:servo.c       **** }
  96              		.loc 1 32 0
  97              		@ sp needed
  98 0018 10BD     		pop	{r4, pc}
  99              		.cfi_endproc
 100              	.LFE33:
 101              		.size	from0DegreeTo180Degree, .-from0DegreeTo180Degree
 102 001a C046     		.section	.text.location0Degree,"ax",%progbits
 103              		.align	2
 104              		.global	location0Degree
 105              		.code	16
 106              		.thumb_func
 107              		.type	location0Degree, %function
 108              	location0Degree:
 109              	.LFB34:
  33:servo.c       **** /*
  34:servo.c       ****     Location 180 degree of circle:
  35:servo.c       ****     1ms of 20ms --> (1/20)*period = (1/20)*1000 = 50;
  36:servo.c       **** */
  37:servo.c       **** void location0Degree()
  38:servo.c       **** {
 110              		.loc 1 38 0
 111              		.cfi_startproc
 112              		@ args = 0, pretend = 0, frame = 0
 113              		@ frame_needed = 0, uses_anonymous_args = 0
 114 0000 10B5     		push	{r4, lr}
 115              		.cfi_def_cfa_offset 8
 116              		.cfi_offset 4, -8
 117              		.cfi_offset 14, -4
 118              	.LVL6:
  39:servo.c       ****     int value_compare = 50; 
  40:servo.c       ****     
  41:servo.c       ****     pwm_WriteCompare(value_compare);
 119              		.loc 1 41 0
 120 0002 3220     		movs	r0, #50
 121 0004 FFF7FEFF 		bl	pwm_WriteCompare
 122              	.LVL7:
  42:servo.c       **** }
 123              		.loc 1 42 0
 124              		@ sp needed
 125 0008 10BD     		pop	{r4, pc}
 126              		.cfi_endproc
 127              	.LFE34:
 128              		.size	location0Degree, .-location0Degree
 129 000a C046     		.section	.text.location90Degree,"ax",%progbits
ARM GAS  C:\Users\NGUYEN~1\AppData\Local\Temp\ccaNqhoC.s 			page 4


 130              		.align	2
 131              		.global	location90Degree
 132              		.code	16
 133              		.thumb_func
 134              		.type	location90Degree, %function
 135              	location90Degree:
 136              	.LFB35:
  43:servo.c       **** 
  44:servo.c       **** /*
  45:servo.c       ****     Location 90 degree of circle:
  46:servo.c       ****     1.5ms  of 20ms  -->  (1.5/20)*period = (1.5/20)*1000 = 75
  47:servo.c       **** 
  48:servo.c       **** */
  49:servo.c       **** void location90Degree()
  50:servo.c       **** {
 137              		.loc 1 50 0
 138              		.cfi_startproc
 139              		@ args = 0, pretend = 0, frame = 0
 140              		@ frame_needed = 0, uses_anonymous_args = 0
 141 0000 10B5     		push	{r4, lr}
 142              		.cfi_def_cfa_offset 8
 143              		.cfi_offset 4, -8
 144              		.cfi_offset 14, -4
 145              	.LVL8:
  51:servo.c       ****     int value_compare = 75;
  52:servo.c       ****     
  53:servo.c       ****     pwm_WriteCompare(value_compare);
 146              		.loc 1 53 0
 147 0002 4B20     		movs	r0, #75
 148 0004 FFF7FEFF 		bl	pwm_WriteCompare
 149              	.LVL9:
  54:servo.c       **** }
 150              		.loc 1 54 0
 151              		@ sp needed
 152 0008 10BD     		pop	{r4, pc}
 153              		.cfi_endproc
 154              	.LFE35:
 155              		.size	location90Degree, .-location90Degree
 156 000a C046     		.section	.text.location180Degree,"ax",%progbits
 157              		.align	2
 158              		.global	location180Degree
 159              		.code	16
 160              		.thumb_func
 161              		.type	location180Degree, %function
 162              	location180Degree:
 163              	.LFB36:
  55:servo.c       **** 
  56:servo.c       **** /*
  57:servo.c       ****     Location 0 degree of circle:
  58:servo.c       ****     2ms of 20ms  --> (2/20)*period = (2/20)*1000 = 100
  59:servo.c       **** */
  60:servo.c       **** void location180Degree()
  61:servo.c       **** {
 164              		.loc 1 61 0
 165              		.cfi_startproc
 166              		@ args = 0, pretend = 0, frame = 0
 167              		@ frame_needed = 0, uses_anonymous_args = 0
ARM GAS  C:\Users\NGUYEN~1\AppData\Local\Temp\ccaNqhoC.s 			page 5


 168 0000 10B5     		push	{r4, lr}
 169              		.cfi_def_cfa_offset 8
 170              		.cfi_offset 4, -8
 171              		.cfi_offset 14, -4
 172              	.LVL10:
  62:servo.c       ****     int value_compare = 100;
  63:servo.c       ****     
  64:servo.c       ****      pwm_WriteCompare(value_compare);
 173              		.loc 1 64 0
 174 0002 6420     		movs	r0, #100
 175 0004 FFF7FEFF 		bl	pwm_WriteCompare
 176              	.LVL11:
  65:servo.c       **** }
 177              		.loc 1 65 0
 178              		@ sp needed
 179 0008 10BD     		pop	{r4, pc}
 180              		.cfi_endproc
 181              	.LFE36:
 182              		.size	location180Degree, .-location180Degree
 183 000a C046     		.text
 184              	.Letext0:
 185              		.file 2 "Generated_Source\\PSoC4/pwm.h"