ARM GAS  C:\Users\NGUYEN~1\AppData\Local\Temp\ccbbgXt4.s 			page 1


   1              		.syntax unified
   2              		.cpu cortex-m0
   3              		.fpu softvfp
   4              		.eabi_attribute 20, 1
   5              		.eabi_attribute 21, 1
   6              		.eabi_attribute 23, 3
   7              		.eabi_attribute 24, 1
   8              		.eabi_attribute 25, 1
   9              		.eabi_attribute 26, 1
  10              		.eabi_attribute 30, 1
  11              		.eabi_attribute 34, 0
  12              		.eabi_attribute 18, 4
  13              		.thumb
  14              		.syntax unified
  15              		.file	"eeprom_external.c"
  16              		.text
  17              	.Ltext0:
  18              		.cfi_sections	.debug_frame
  19              		.section	.text.eeprom_read_a_byte,"ax",%progbits
  20              		.align	2
  21              		.global	eeprom_read_a_byte
  22              		.code	16
  23              		.thumb_func
  24              		.type	eeprom_read_a_byte, %function
  25              	eeprom_read_a_byte:
  26              	.LFB33:
  27              		.file 1 "eeprom_external.c"
   1:eeprom_external.c **** /* ========================================
   2:eeprom_external.c ****  *
   3:eeprom_external.c ****  * Copyright YOUR COMPANY, THE YEAR
   4:eeprom_external.c ****  * All Rights Reserved
   5:eeprom_external.c ****  * UNPUBLISHED, LICENSED SOFTWARE.
   6:eeprom_external.c ****  *
   7:eeprom_external.c ****  * CONFIDENTIAL AND PROPRIETARY INFORMATION
   8:eeprom_external.c ****  * WHICH IS THE PROPERTY OF your company.
   9:eeprom_external.c ****  *
  10:eeprom_external.c ****  * ========================================
  11:eeprom_external.c **** */
  12:eeprom_external.c **** #include "project.h"
  13:eeprom_external.c **** #include <stdio.h>
  14:eeprom_external.c **** 
  15:eeprom_external.c **** #include "eeprom_external.h"
  16:eeprom_external.c **** 
  17:eeprom_external.c **** 
  18:eeprom_external.c **** 
  19:eeprom_external.c **** //0 1010 B2B1B0 --> B2=B1=B0=0 --> 0101 000 --> 0x50
  20:eeprom_external.c **** #define EEPROM_ADDRESS 0x50
  21:eeprom_external.c **** 
  22:eeprom_external.c **** /*
  23:eeprom_external.c ****     Random a byte read
  24:eeprom_external.c **** */
  25:eeprom_external.c **** uint8 eeprom_read_a_byte( unsigned long  address_read)
  26:eeprom_external.c **** {
  28              		.loc 1 26 0
  29              		.cfi_startproc
  30              		@ args = 0, pretend = 0, frame = 8
  31              		@ frame_needed = 0, uses_anonymous_args = 0
ARM GAS  C:\Users\NGUYEN~1\AppData\Local\Temp\ccbbgXt4.s 			page 2


  32              	.LVL0:
  33 0000 10B5     		push	{r4, lr}
  34              		.cfi_def_cfa_offset 8
  35              		.cfi_offset 4, -8
  36              		.cfi_offset 14, -4
  37 0002 82B0     		sub	sp, sp, #8
  38              		.cfi_def_cfa_offset 16
  39 0004 0400     		movs	r4, r0
  40              	.LVL1:
  41              	.L2:
  27:eeprom_external.c ****     uint8 data_read;
  28:eeprom_external.c ****     uint8 result = 0;
  29:eeprom_external.c ****     
  30:eeprom_external.c ****     do{
  31:eeprom_external.c ****         result = i2c_I2CMasterSendStart(EEPROM_ADDRESS, i2c_I2C_WRITE_XFER_MODE, 1);
  42              		.loc 1 31 0 discriminator 1
  43 0006 0122     		movs	r2, #1
  44 0008 0021     		movs	r1, #0
  45 000a 5020     		movs	r0, #80
  46 000c FFF7FEFF 		bl	i2c_I2CMasterSendStart
  47              	.LVL2:
  48 0010 C0B2     		uxtb	r0, r0
  49              	.LVL3:
  32:eeprom_external.c ****     }while(result != i2c_I2C_MSTR_NO_ERROR);
  50              		.loc 1 32 0 discriminator 1
  51 0012 0028     		cmp	r0, #0
  52 0014 F7D1     		bne	.L2
  33:eeprom_external.c ****     
  34:eeprom_external.c ****     i2c_I2CMasterWriteByte( address_read, 1 );
  53              		.loc 1 34 0
  54 0016 0121     		movs	r1, #1
  55 0018 2000     		movs	r0, r4
  56              	.LVL4:
  57 001a FFF7FEFF 		bl	i2c_I2CMasterWriteByte
  58              	.LVL5:
  35:eeprom_external.c ****     
  36:eeprom_external.c ****     i2c_I2CMasterSendRestart(EEPROM_ADDRESS, i2c_I2C_READ_XFER_MODE, 1);
  59              		.loc 1 36 0
  60 001e 0122     		movs	r2, #1
  61 0020 0121     		movs	r1, #1
  62 0022 5020     		movs	r0, #80
  63 0024 FFF7FEFF 		bl	i2c_I2CMasterSendRestart
  64              	.LVL6:
  37:eeprom_external.c ****     
  38:eeprom_external.c ****     i2c_I2CMasterReadByte( i2c_I2C_NAK_DATA, &data_read , 1);
  65              		.loc 1 38 0
  66 0028 6B46     		mov	r3, sp
  67 002a DC1D     		adds	r4, r3, #7
  68              	.LVL7:
  69 002c 0122     		movs	r2, #1
  70 002e 2100     		movs	r1, r4
  71 0030 0120     		movs	r0, #1
  72 0032 FFF7FEFF 		bl	i2c_I2CMasterReadByte
  73              	.LVL8:
  39:eeprom_external.c ****     
  40:eeprom_external.c ****     i2c_I2CMasterSendStop(5);
  74              		.loc 1 40 0
ARM GAS  C:\Users\NGUYEN~1\AppData\Local\Temp\ccbbgXt4.s 			page 3


  75 0036 0520     		movs	r0, #5
  76 0038 FFF7FEFF 		bl	i2c_I2CMasterSendStop
  77              	.LVL9:
  41:eeprom_external.c ****     
  42:eeprom_external.c ****     return data_read;
  78              		.loc 1 42 0
  79 003c 2078     		ldrb	r0, [r4]
  43:eeprom_external.c **** }
  80              		.loc 1 43 0
  81 003e 02B0     		add	sp, sp, #8
  82              		@ sp needed
  83 0040 10BD     		pop	{r4, pc}
  84              		.cfi_endproc
  85              	.LFE33:
  86              		.size	eeprom_read_a_byte, .-eeprom_read_a_byte
  87 0042 C046     		.section	.text.eeprom_read_page,"ax",%progbits
  88              		.align	2
  89              		.global	eeprom_read_page
  90              		.code	16
  91              		.thumb_func
  92              		.type	eeprom_read_page, %function
  93              	eeprom_read_page:
  94              	.LFB34:
  44:eeprom_external.c **** 
  45:eeprom_external.c **** 
  46:eeprom_external.c **** /*
  47:eeprom_external.c ****    Sequential( page) read
  48:eeprom_external.c **** */
  49:eeprom_external.c **** void eeprom_read_page(uint8 address, uint8 *data_read, uint8 length)
  50:eeprom_external.c **** {
  95              		.loc 1 50 0
  96              		.cfi_startproc
  97              		@ args = 0, pretend = 0, frame = 0
  98              		@ frame_needed = 0, uses_anonymous_args = 0
  99              	.LVL10:
 100 0000 70B5     		push	{r4, r5, r6, lr}
 101              		.cfi_def_cfa_offset 16
 102              		.cfi_offset 4, -16
 103              		.cfi_offset 5, -12
 104              		.cfi_offset 6, -8
 105              		.cfi_offset 14, -4
 106 0002 0400     		movs	r4, r0
 107 0004 0D00     		movs	r5, r1
 108 0006 1600     		movs	r6, r2
 109              	.LVL11:
 110              	.L4:
  51:eeprom_external.c ****     uint8 result = 0, i;
  52:eeprom_external.c ****     
  53:eeprom_external.c ****     do{
  54:eeprom_external.c ****         result = i2c_I2CMasterSendStart(EEPROM_ADDRESS, i2c_I2C_WRITE_XFER_MODE, 1);
 111              		.loc 1 54 0 discriminator 1
 112 0008 0122     		movs	r2, #1
 113 000a 0021     		movs	r1, #0
 114 000c 5020     		movs	r0, #80
 115 000e FFF7FEFF 		bl	i2c_I2CMasterSendStart
 116              	.LVL12:
 117 0012 C0B2     		uxtb	r0, r0
ARM GAS  C:\Users\NGUYEN~1\AppData\Local\Temp\ccbbgXt4.s 			page 4


 118              	.LVL13:
  55:eeprom_external.c ****     }while(result != i2c_I2C_MSTR_NO_ERROR);
 119              		.loc 1 55 0 discriminator 1
 120 0014 0028     		cmp	r0, #0
 121 0016 F7D1     		bne	.L4
  56:eeprom_external.c ****     
  57:eeprom_external.c ****      i2c_I2CMasterWriteByte( (uint32)address, 1 );
 122              		.loc 1 57 0
 123 0018 0121     		movs	r1, #1
 124 001a 2000     		movs	r0, r4
 125              	.LVL14:
 126 001c FFF7FEFF 		bl	i2c_I2CMasterWriteByte
 127              	.LVL15:
  58:eeprom_external.c ****     
  59:eeprom_external.c ****     i2c_I2CMasterSendRestart(EEPROM_ADDRESS, i2c_I2C_READ_XFER_MODE, 1);
 128              		.loc 1 59 0
 129 0020 0122     		movs	r2, #1
 130 0022 0121     		movs	r1, #1
 131 0024 5020     		movs	r0, #80
 132 0026 FFF7FEFF 		bl	i2c_I2CMasterSendRestart
 133              	.LVL16:
  60:eeprom_external.c ****     
  61:eeprom_external.c ****     for(i=0; i<length-1; i++)
 134              		.loc 1 61 0
 135 002a 0024     		movs	r4, #0
 136 002c 06E0     		b	.L5
 137              	.LVL17:
 138              	.L6:
  62:eeprom_external.c ****     {
  63:eeprom_external.c ****          i2c_I2CMasterReadByte( i2c_I2C_ACK_DATA, &data_read[i] , 1);
 139              		.loc 1 63 0 discriminator 3
 140 002e 2919     		adds	r1, r5, r4
 141 0030 0122     		movs	r2, #1
 142 0032 0020     		movs	r0, #0
 143 0034 FFF7FEFF 		bl	i2c_I2CMasterReadByte
 144              	.LVL18:
  61:eeprom_external.c ****     {
 145              		.loc 1 61 0 discriminator 3
 146 0038 0134     		adds	r4, r4, #1
 147              	.LVL19:
 148 003a E4B2     		uxtb	r4, r4
 149              	.LVL20:
 150              	.L5:
  61:eeprom_external.c ****     {
 151              		.loc 1 61 0 is_stmt 0 discriminator 1
 152 003c 731E     		subs	r3, r6, #1
 153 003e 9C42     		cmp	r4, r3
 154 0040 F5DB     		blt	.L6
  64:eeprom_external.c ****     }
  65:eeprom_external.c ****     i2c_I2CMasterReadByte( i2c_I2C_NAK_DATA, &data_read[i] , 1);
 155              		.loc 1 65 0 is_stmt 1
 156 0042 2919     		adds	r1, r5, r4
 157 0044 0122     		movs	r2, #1
 158 0046 0120     		movs	r0, #1
 159 0048 FFF7FEFF 		bl	i2c_I2CMasterReadByte
 160              	.LVL21:
  66:eeprom_external.c ****     
ARM GAS  C:\Users\NGUYEN~1\AppData\Local\Temp\ccbbgXt4.s 			page 5


  67:eeprom_external.c ****     i2c_I2CMasterSendStop(5);
 161              		.loc 1 67 0
 162 004c 0520     		movs	r0, #5
 163 004e FFF7FEFF 		bl	i2c_I2CMasterSendStop
 164              	.LVL22:
  68:eeprom_external.c **** }
 165              		.loc 1 68 0
 166              		@ sp needed
 167              	.LVL23:
 168              	.LVL24:
 169 0052 70BD     		pop	{r4, r5, r6, pc}
 170              		.cfi_endproc
 171              	.LFE34:
 172              		.size	eeprom_read_page, .-eeprom_read_page
 173              		.section	.text.eeprom_write_a_byte_128,"ax",%progbits
 174              		.align	2
 175              		.global	eeprom_write_a_byte_128
 176              		.code	16
 177              		.thumb_func
 178              		.type	eeprom_write_a_byte_128, %function
 179              	eeprom_write_a_byte_128:
 180              	.LFB35:
  69:eeprom_external.c **** 
  70:eeprom_external.c **** //eeprom 24c128 --> error
  71:eeprom_external.c **** void eeprom_write_a_byte_128(uint32 address, uint8 data_need_write)
  72:eeprom_external.c **** {
 181              		.loc 1 72 0
 182              		.cfi_startproc
 183              		@ args = 0, pretend = 0, frame = 0
 184              		@ frame_needed = 0, uses_anonymous_args = 0
 185              	.LVL25:
 186 0000 70B5     		push	{r4, r5, r6, lr}
 187              		.cfi_def_cfa_offset 16
 188              		.cfi_offset 4, -16
 189              		.cfi_offset 5, -12
 190              		.cfi_offset 6, -8
 191              		.cfi_offset 14, -4
 192 0002 0400     		movs	r4, r0
 193 0004 0D00     		movs	r5, r1
 194              	.LVL26:
 195              	.L8:
  73:eeprom_external.c ****     uint8 result = 0;
  74:eeprom_external.c ****     
  75:eeprom_external.c ****     do{
  76:eeprom_external.c ****         result = i2c_I2CMasterSendStart(EEPROM_ADDRESS, i2c_I2C_WRITE_XFER_MODE, 1);
 196              		.loc 1 76 0 discriminator 1
 197 0006 0122     		movs	r2, #1
 198 0008 0021     		movs	r1, #0
 199 000a 5020     		movs	r0, #80
 200 000c FFF7FEFF 		bl	i2c_I2CMasterSendStart
 201              	.LVL27:
 202 0010 C0B2     		uxtb	r0, r0
 203              	.LVL28:
  77:eeprom_external.c ****     }while(result != i2c_I2C_MSTR_NO_ERROR);
 204              		.loc 1 77 0 discriminator 1
 205 0012 0028     		cmp	r0, #0
 206 0014 F7D1     		bne	.L8
ARM GAS  C:\Users\NGUYEN~1\AppData\Local\Temp\ccbbgXt4.s 			page 6


  78:eeprom_external.c ****     
  79:eeprom_external.c ****     i2c_I2CMasterWriteByte( (int)(address >> 8), 1 );   //MSB
 207              		.loc 1 79 0
 208 0016 200A     		lsrs	r0, r4, #8
 209              	.LVL29:
 210 0018 0121     		movs	r1, #1
 211 001a FFF7FEFF 		bl	i2c_I2CMasterWriteByte
 212              	.LVL30:
  80:eeprom_external.c ****     
  81:eeprom_external.c ****     i2c_I2CMasterWriteByte( (int)(address & 0xff) , 1 );    //LSB
 213              		.loc 1 81 0
 214 001e FF20     		movs	r0, #255
 215 0020 2040     		ands	r0, r4
 216 0022 0121     		movs	r1, #1
 217 0024 FFF7FEFF 		bl	i2c_I2CMasterWriteByte
 218              	.LVL31:
  82:eeprom_external.c ****     
  83:eeprom_external.c ****     i2c_I2CMasterWriteByte( data_need_write, 1 );
 219              		.loc 1 83 0
 220 0028 0121     		movs	r1, #1
 221 002a 2800     		movs	r0, r5
 222 002c FFF7FEFF 		bl	i2c_I2CMasterWriteByte
 223              	.LVL32:
  84:eeprom_external.c ****     
  85:eeprom_external.c ****     i2c_I2CMasterSendStop(5);
 224              		.loc 1 85 0
 225 0030 0520     		movs	r0, #5
 226 0032 FFF7FEFF 		bl	i2c_I2CMasterSendStop
 227              	.LVL33:
  86:eeprom_external.c **** }
 228              		.loc 1 86 0
 229              		@ sp needed
 230              	.LVL34:
 231 0036 70BD     		pop	{r4, r5, r6, pc}
 232              		.cfi_endproc
 233              	.LFE35:
 234              		.size	eeprom_write_a_byte_128, .-eeprom_write_a_byte_128
 235              		.section	.text.eeprom_write_a_byte_08,"ax",%progbits
 236              		.align	2
 237              		.global	eeprom_write_a_byte_08
 238              		.code	16
 239              		.thumb_func
 240              		.type	eeprom_write_a_byte_08, %function
 241              	eeprom_write_a_byte_08:
 242              	.LFB36:
  87:eeprom_external.c **** 
  88:eeprom_external.c **** //eeprom 24c08
  89:eeprom_external.c **** void eeprom_write_a_byte_08(uint32 address, uint8 data_need_write)
  90:eeprom_external.c **** {
 243              		.loc 1 90 0
 244              		.cfi_startproc
 245              		@ args = 0, pretend = 0, frame = 0
 246              		@ frame_needed = 0, uses_anonymous_args = 0
 247              	.LVL35:
 248 0000 70B5     		push	{r4, r5, r6, lr}
 249              		.cfi_def_cfa_offset 16
 250              		.cfi_offset 4, -16
ARM GAS  C:\Users\NGUYEN~1\AppData\Local\Temp\ccbbgXt4.s 			page 7


 251              		.cfi_offset 5, -12
 252              		.cfi_offset 6, -8
 253              		.cfi_offset 14, -4
 254 0002 0500     		movs	r5, r0
 255 0004 0C00     		movs	r4, r1
 256              	.LVL36:
 257              	.L10:
  91:eeprom_external.c ****     uint8 result = 0;
  92:eeprom_external.c ****     
  93:eeprom_external.c ****     do{
  94:eeprom_external.c ****         result = i2c_I2CMasterSendStart(EEPROM_ADDRESS, i2c_I2C_WRITE_XFER_MODE, 1);
 258              		.loc 1 94 0 discriminator 1
 259 0006 0122     		movs	r2, #1
 260 0008 0021     		movs	r1, #0
 261 000a 5020     		movs	r0, #80
 262 000c FFF7FEFF 		bl	i2c_I2CMasterSendStart
 263              	.LVL37:
 264 0010 C0B2     		uxtb	r0, r0
 265              	.LVL38:
  95:eeprom_external.c ****     }while(result != i2c_I2C_MSTR_NO_ERROR);
 266              		.loc 1 95 0 discriminator 1
 267 0012 0028     		cmp	r0, #0
 268 0014 F7D1     		bne	.L10
  96:eeprom_external.c ****     
  97:eeprom_external.c ****     i2c_I2CMasterWriteByte( address , 1 );
 269              		.loc 1 97 0
 270 0016 0121     		movs	r1, #1
 271 0018 2800     		movs	r0, r5
 272              	.LVL39:
 273 001a FFF7FEFF 		bl	i2c_I2CMasterWriteByte
 274              	.LVL40:
  98:eeprom_external.c ****     
  99:eeprom_external.c ****     i2c_I2CMasterWriteByte( data_need_write, 1 );
 275              		.loc 1 99 0
 276 001e 0121     		movs	r1, #1
 277 0020 2000     		movs	r0, r4
 278 0022 FFF7FEFF 		bl	i2c_I2CMasterWriteByte
 279              	.LVL41:
 100:eeprom_external.c ****     
 101:eeprom_external.c ****     i2c_I2CMasterSendStop(5);
 280              		.loc 1 101 0
 281 0026 0520     		movs	r0, #5
 282 0028 FFF7FEFF 		bl	i2c_I2CMasterSendStop
 283              	.LVL42:
 102:eeprom_external.c **** }
 284              		.loc 1 102 0
 285              		@ sp needed
 286              	.LVL43:
 287 002c 70BD     		pop	{r4, r5, r6, pc}
 288              		.cfi_endproc
 289              	.LFE36:
 290              		.size	eeprom_write_a_byte_08, .-eeprom_write_a_byte_08
 291 002e C046     		.section	.text.eeprom_write_page,"ax",%progbits
 292              		.align	2
 293              		.global	eeprom_write_page
 294              		.code	16
 295              		.thumb_func
ARM GAS  C:\Users\NGUYEN~1\AppData\Local\Temp\ccbbgXt4.s 			page 8


 296              		.type	eeprom_write_page, %function
 297              	eeprom_write_page:
 298              	.LFB37:
 103:eeprom_external.c **** void eeprom_write_page(uint8 address, uint32 *data_need_write, uint8 length)
 104:eeprom_external.c **** {
 299              		.loc 1 104 0
 300              		.cfi_startproc
 301              		@ args = 0, pretend = 0, frame = 0
 302              		@ frame_needed = 0, uses_anonymous_args = 0
 303              	.LVL44:
 304 0000 70B5     		push	{r4, r5, r6, lr}
 305              		.cfi_def_cfa_offset 16
 306              		.cfi_offset 4, -16
 307              		.cfi_offset 5, -12
 308              		.cfi_offset 6, -8
 309              		.cfi_offset 14, -4
 310 0002 0400     		movs	r4, r0
 311 0004 0E00     		movs	r6, r1
 312 0006 1500     		movs	r5, r2
 313              	.LVL45:
 314              	.L12:
 105:eeprom_external.c ****     uint8 result = 0, i;
 106:eeprom_external.c ****      do{
 107:eeprom_external.c ****         result = i2c_I2CMasterSendStart(EEPROM_ADDRESS, i2c_I2C_WRITE_XFER_MODE, 1);
 315              		.loc 1 107 0 discriminator 1
 316 0008 0122     		movs	r2, #1
 317 000a 0021     		movs	r1, #0
 318 000c 5020     		movs	r0, #80
 319 000e FFF7FEFF 		bl	i2c_I2CMasterSendStart
 320              	.LVL46:
 321 0012 C0B2     		uxtb	r0, r0
 322              	.LVL47:
 108:eeprom_external.c ****     }while(result != i2c_I2C_MSTR_NO_ERROR);
 323              		.loc 1 108 0 discriminator 1
 324 0014 0028     		cmp	r0, #0
 325 0016 F7D1     		bne	.L12
 109:eeprom_external.c ****     
 110:eeprom_external.c ****     i2c_I2CMasterWriteByte( (uint32)address, 1 );
 326              		.loc 1 110 0
 327 0018 0121     		movs	r1, #1
 328 001a 2000     		movs	r0, r4
 329              	.LVL48:
 330 001c FFF7FEFF 		bl	i2c_I2CMasterWriteByte
 331              	.LVL49:
 111:eeprom_external.c ****     
 112:eeprom_external.c ****     for(i=0; i<length; i++)
 332              		.loc 1 112 0
 333 0020 0024     		movs	r4, #0
 334 0022 06E0     		b	.L13
 335              	.LVL50:
 336              	.L14:
 113:eeprom_external.c ****          i2c_I2CMasterWriteByte( data_need_write[i], 1 );
 337              		.loc 1 113 0 discriminator 3
 338 0024 A300     		lsls	r3, r4, #2
 339 0026 F058     		ldr	r0, [r6, r3]
 340 0028 0121     		movs	r1, #1
 341 002a FFF7FEFF 		bl	i2c_I2CMasterWriteByte
ARM GAS  C:\Users\NGUYEN~1\AppData\Local\Temp\ccbbgXt4.s 			page 9


 342              	.LVL51:
 112:eeprom_external.c ****          i2c_I2CMasterWriteByte( data_need_write[i], 1 );
 343              		.loc 1 112 0 discriminator 3
 344 002e 0134     		adds	r4, r4, #1
 345              	.LVL52:
 346 0030 E4B2     		uxtb	r4, r4
 347              	.LVL53:
 348              	.L13:
 112:eeprom_external.c ****          i2c_I2CMasterWriteByte( data_need_write[i], 1 );
 349              		.loc 1 112 0 is_stmt 0 discriminator 1
 350 0032 AC42     		cmp	r4, r5
 351 0034 F6D3     		bcc	.L14
 114:eeprom_external.c ****         
 115:eeprom_external.c ****     i2c_I2CMasterSendStop(5);
 352              		.loc 1 115 0 is_stmt 1
 353 0036 0520     		movs	r0, #5
 354 0038 FFF7FEFF 		bl	i2c_I2CMasterSendStop
 355              	.LVL54:
 116:eeprom_external.c **** }
 356              		.loc 1 116 0
 357              		@ sp needed
 358              	.LVL55:
 359              	.LVL56:
 360 003c 70BD     		pop	{r4, r5, r6, pc}
 361              		.cfi_endproc
 362              	.LFE37:
 363              		.size	eeprom_write_page, .-eeprom_write_page
 364 003e C046     		.section	.text.find_address_eeprom,"ax",%progbits
 365              		.align	2
 366              		.global	find_address_eeprom
 367              		.code	16
 368              		.thumb_func
 369              		.type	find_address_eeprom, %function
 370              	find_address_eeprom:
 371              	.LFB38:
 117:eeprom_external.c **** 
 118:eeprom_external.c **** uint8 find_address_eeprom()
 119:eeprom_external.c **** {
 372              		.loc 1 119 0
 373              		.cfi_startproc
 374              		@ args = 0, pretend = 0, frame = 0
 375              		@ frame_needed = 0, uses_anonymous_args = 0
 376 0000 10B5     		push	{r4, lr}
 377              		.cfi_def_cfa_offset 8
 378              		.cfi_offset 4, -8
 379              		.cfi_offset 14, -4
 380              	.L17:
 120:eeprom_external.c ****     static int counter=0;
 121:eeprom_external.c ****     uint8 result = 0;
 122:eeprom_external.c ****     static uint8 address = 0x40;   //0x50-1
 123:eeprom_external.c ****     
 124:eeprom_external.c ****     
 125:eeprom_external.c ****     
 126:eeprom_external.c ****     do{
 127:eeprom_external.c ****         counter++;
 381              		.loc 1 127 0 discriminator 2
 382 0002 0F4A     		ldr	r2, .L20
ARM GAS  C:\Users\NGUYEN~1\AppData\Local\Temp\ccbbgXt4.s 			page 10


 383 0004 1368     		ldr	r3, [r2]
 384 0006 0133     		adds	r3, r3, #1
 385 0008 1360     		str	r3, [r2]
 128:eeprom_external.c ****         result = i2c_I2CMasterSendStart(address, i2c_I2C_WRITE_XFER_MODE, 1);
 386              		.loc 1 128 0 discriminator 2
 387 000a 0E4B     		ldr	r3, .L20+4
 388 000c 1878     		ldrb	r0, [r3]
 389 000e 0122     		movs	r2, #1
 390 0010 0021     		movs	r1, #0
 391 0012 FFF7FEFF 		bl	i2c_I2CMasterSendStart
 392              	.LVL57:
 393 0016 C0B2     		uxtb	r0, r0
 394              	.LVL58:
 129:eeprom_external.c ****     }while( (result != i2c_I2C_MSTR_NO_ERROR) && (counter<=5) );
 395              		.loc 1 129 0 discriminator 2
 396 0018 0028     		cmp	r0, #0
 397 001a 03D0     		beq	.L16
 398              		.loc 1 129 0 is_stmt 0 discriminator 1
 399 001c 084B     		ldr	r3, .L20
 400 001e 1B68     		ldr	r3, [r3]
 401 0020 052B     		cmp	r3, #5
 402 0022 EEDD     		ble	.L17
 403              	.L16:
 130:eeprom_external.c ****     
 131:eeprom_external.c ****     counter = 0;
 404              		.loc 1 131 0 is_stmt 1
 405 0024 0022     		movs	r2, #0
 406 0026 064B     		ldr	r3, .L20
 407 0028 1A60     		str	r2, [r3]
 132:eeprom_external.c ****    
 133:eeprom_external.c ****     if( result != i2c_I2C_MSTR_NO_ERROR )
 408              		.loc 1 133 0
 409 002a 0028     		cmp	r0, #0
 410 002c 02D0     		beq	.L18
 134:eeprom_external.c ****         return address;
 411              		.loc 1 134 0
 412 002e 054B     		ldr	r3, .L20+4
 413 0030 1878     		ldrb	r0, [r3]
 414              	.LVL59:
 415 0032 04E0     		b	.L19
 416              	.LVL60:
 417              	.L18:
 135:eeprom_external.c ****     else 
 136:eeprom_external.c ****     {
 137:eeprom_external.c ****         address++;
 418              		.loc 1 137 0
 419 0034 034A     		ldr	r2, .L20+4
 420 0036 1378     		ldrb	r3, [r2]
 421 0038 0133     		adds	r3, r3, #1
 422 003a 1370     		strb	r3, [r2]
 138:eeprom_external.c ****         return 0x01; 
 423              		.loc 1 138 0
 424 003c 0120     		movs	r0, #1
 425              	.LVL61:
 426              	.L19:
 139:eeprom_external.c ****     }
 140:eeprom_external.c **** }
ARM GAS  C:\Users\NGUYEN~1\AppData\Local\Temp\ccbbgXt4.s 			page 11


 427              		.loc 1 140 0
 428              		@ sp needed
 429 003e 10BD     		pop	{r4, pc}
 430              	.L21:
 431              		.align	2
 432              	.L20:
 433 0040 00000000 		.word	.LANCHOR0
 434 0044 00000000 		.word	.LANCHOR1
 435              		.cfi_endproc
 436              	.LFE38:
 437              		.size	find_address_eeprom, .-find_address_eeprom
 438              		.data
 439              		.set	.LANCHOR1,. + 0
 440              		.type	address.6580, %object
 441              		.size	address.6580, 1
 442              	address.6580:
 443 0000 40       		.byte	64
 444              		.bss
 445              		.align	2
 446              		.set	.LANCHOR0,. + 0
 447              		.type	counter.6578, %object
 448              		.size	counter.6578, 4
 449              	counter.6578:
 450 0000 00000000 		.space	4
 451              		.text
 452              	.Letext0:
 453              		.file 2 "Generated_Source\\PSoC4/cytypes.h"
 454              		.file 3 "Generated_Source\\PSoC4/i2c_I2C.h"