ARM GAS  C:\Users\NGUYEN~1\AppData\Local\Temp\cctTV6c3.s 			page 1


   1              		.syntax unified
   2              		.cpu cortex-m0
   3              		.fpu softvfp
   4              		.eabi_attribute 20, 1
   5              		.eabi_attribute 21, 1
   6              		.eabi_attribute 23, 3
   7              		.eabi_attribute 24, 1
   8              		.eabi_attribute 25, 1
   9              		.eabi_attribute 26, 1
  10              		.eabi_attribute 30, 1
  11              		.eabi_attribute 34, 0
  12              		.eabi_attribute 18, 4
  13              		.thumb
  14              		.syntax unified
  15              		.file	"ledYellow.c"
  16              		.text
  17              	.Ltext0:
  18              		.cfi_sections	.debug_frame
  19              		.section	.text.four_led_short_off,"ax",%progbits
  20              		.align	2
  21              		.global	four_led_short_off
  22              		.code	16
  23              		.thumb_func
  24              		.type	four_led_short_off, %function
  25              	four_led_short_off:
  26              	.LFB33:
  27              		.file 1 "ledYellow.c"
   1:ledYellow.c   **** /* ========================================
   2:ledYellow.c   ****  *
   3:ledYellow.c   ****  * Copyright YOUR COMPANY, THE YEAR
   4:ledYellow.c   ****  * All Rights Reserved
   5:ledYellow.c   ****  * UNPUBLISHED, LICENSED SOFTWARE.
   6:ledYellow.c   ****  *
   7:ledYellow.c   ****  * CONFIDENTIAL AND PROPRIETARY INFORMATION
   8:ledYellow.c   ****  * WHICH IS THE PROPERTY OF your company.
   9:ledYellow.c   ****  *
  10:ledYellow.c   ****  * ========================================
  11:ledYellow.c   **** */
  12:ledYellow.c   ****  #include <stdio.h>
  13:ledYellow.c   ****  #include "project.h"
  14:ledYellow.c   **** 
  15:ledYellow.c   **** extern volatile unsigned long counter1_s;
  16:ledYellow.c   **** volatile unsigned long time_current = 0;
  17:ledYellow.c   **** 
  18:ledYellow.c   **** enum Status_Led
  19:ledYellow.c   **** {
  20:ledYellow.c   ****     turn_on = 0,
  21:ledYellow.c   ****     turn_off
  22:ledYellow.c   **** };
  23:ledYellow.c   **** 
  24:ledYellow.c   **** void four_led_short_off() //0000 L3 L2 L1 L0 
  25:ledYellow.c   **** {
  28              		.loc 1 25 0
  29              		.cfi_startproc
  30              		@ args = 0, pretend = 0, frame = 0
  31              		@ frame_needed = 0, uses_anonymous_args = 0
  32 0000 10B5     		push	{r4, lr}
ARM GAS  C:\Users\NGUYEN~1\AppData\Local\Temp\cctTV6c3.s 			page 2


  33              		.cfi_def_cfa_offset 8
  34              		.cfi_offset 4, -8
  35              		.cfi_offset 14, -4
  26:ledYellow.c   ****     LedYellow_0_Write(turn_off);
  36              		.loc 1 26 0
  37 0002 0120     		movs	r0, #1
  38 0004 FFF7FEFF 		bl	LedYellow_0_Write
  39              	.LVL0:
  27:ledYellow.c   ****     LedYellow_1_Write(turn_off);
  40              		.loc 1 27 0
  41 0008 0120     		movs	r0, #1
  42 000a FFF7FEFF 		bl	LedYellow_1_Write
  43              	.LVL1:
  28:ledYellow.c   ****     LedYellow_2_Write(turn_off);
  44              		.loc 1 28 0
  45 000e 0120     		movs	r0, #1
  46 0010 FFF7FEFF 		bl	LedYellow_2_Write
  47              	.LVL2:
  29:ledYellow.c   ****     LedYellow_3_Write(turn_off);
  48              		.loc 1 29 0
  49 0014 0120     		movs	r0, #1
  50 0016 FFF7FEFF 		bl	LedYellow_3_Write
  51              	.LVL3:
  30:ledYellow.c   **** }
  52              		.loc 1 30 0
  53              		@ sp needed
  54 001a 10BD     		pop	{r4, pc}
  55              		.cfi_endproc
  56              	.LFE33:
  57              		.size	four_led_short_off, .-four_led_short_off
  58              		.section	.text.four_led_tall_off,"ax",%progbits
  59              		.align	2
  60              		.global	four_led_tall_off
  61              		.code	16
  62              		.thumb_func
  63              		.type	four_led_tall_off, %function
  64              	four_led_tall_off:
  65              	.LFB34:
  31:ledYellow.c   **** 
  32:ledYellow.c   **** void four_led_tall_off() // L7 L6 L5 L4 0000
  33:ledYellow.c   **** {
  66              		.loc 1 33 0
  67              		.cfi_startproc
  68              		@ args = 0, pretend = 0, frame = 0
  69              		@ frame_needed = 0, uses_anonymous_args = 0
  70 0000 10B5     		push	{r4, lr}
  71              		.cfi_def_cfa_offset 8
  72              		.cfi_offset 4, -8
  73              		.cfi_offset 14, -4
  34:ledYellow.c   ****     LedYellow_4_Write(turn_off);
  74              		.loc 1 34 0
  75 0002 0120     		movs	r0, #1
  76 0004 FFF7FEFF 		bl	LedYellow_4_Write
  77              	.LVL4:
  35:ledYellow.c   ****     LedYellow_5_Write(turn_off);
  78              		.loc 1 35 0
  79 0008 0120     		movs	r0, #1
ARM GAS  C:\Users\NGUYEN~1\AppData\Local\Temp\cctTV6c3.s 			page 3


  80 000a FFF7FEFF 		bl	LedYellow_5_Write
  81              	.LVL5:
  36:ledYellow.c   ****     LedYellow_6_Write(turn_off);
  82              		.loc 1 36 0
  83 000e 0120     		movs	r0, #1
  84 0010 FFF7FEFF 		bl	LedYellow_6_Write
  85              	.LVL6:
  37:ledYellow.c   ****     LedYellow_7_Write(turn_off);
  86              		.loc 1 37 0
  87 0014 0120     		movs	r0, #1
  88 0016 FFF7FEFF 		bl	LedYellow_7_Write
  89              	.LVL7:
  38:ledYellow.c   **** }
  90              		.loc 1 38 0
  91              		@ sp needed
  92 001a 10BD     		pop	{r4, pc}
  93              		.cfi_endproc
  94              	.LFE34:
  95              		.size	four_led_tall_off, .-four_led_tall_off
  96              		.section	.text.turn_off_all_led,"ax",%progbits
  97              		.align	2
  98              		.global	turn_off_all_led
  99              		.code	16
 100              		.thumb_func
 101              		.type	turn_off_all_led, %function
 102              	turn_off_all_led:
 103              	.LFB35:
  39:ledYellow.c   **** 
  40:ledYellow.c   **** void turn_off_all_led()
  41:ledYellow.c   **** {
 104              		.loc 1 41 0
 105              		.cfi_startproc
 106              		@ args = 0, pretend = 0, frame = 0
 107              		@ frame_needed = 0, uses_anonymous_args = 0
 108 0000 10B5     		push	{r4, lr}
 109              		.cfi_def_cfa_offset 8
 110              		.cfi_offset 4, -8
 111              		.cfi_offset 14, -4
  42:ledYellow.c   ****     LedYellow_0_Write(turn_off);
 112              		.loc 1 42 0
 113 0002 0120     		movs	r0, #1
 114 0004 FFF7FEFF 		bl	LedYellow_0_Write
 115              	.LVL8:
  43:ledYellow.c   ****     LedYellow_1_Write(turn_off);
 116              		.loc 1 43 0
 117 0008 0120     		movs	r0, #1
 118 000a FFF7FEFF 		bl	LedYellow_1_Write
 119              	.LVL9:
  44:ledYellow.c   ****     LedYellow_2_Write(turn_off);
 120              		.loc 1 44 0
 121 000e 0120     		movs	r0, #1
 122 0010 FFF7FEFF 		bl	LedYellow_2_Write
 123              	.LVL10:
  45:ledYellow.c   ****     LedYellow_3_Write(turn_off);
 124              		.loc 1 45 0
 125 0014 0120     		movs	r0, #1
 126 0016 FFF7FEFF 		bl	LedYellow_3_Write
ARM GAS  C:\Users\NGUYEN~1\AppData\Local\Temp\cctTV6c3.s 			page 4


 127              	.LVL11:
  46:ledYellow.c   ****     
  47:ledYellow.c   ****     LedYellow_4_Write(turn_off);
 128              		.loc 1 47 0
 129 001a 0120     		movs	r0, #1
 130 001c FFF7FEFF 		bl	LedYellow_4_Write
 131              	.LVL12:
  48:ledYellow.c   ****     LedYellow_5_Write(turn_off);
 132              		.loc 1 48 0
 133 0020 0120     		movs	r0, #1
 134 0022 FFF7FEFF 		bl	LedYellow_5_Write
 135              	.LVL13:
  49:ledYellow.c   ****     LedYellow_6_Write(turn_off);
 136              		.loc 1 49 0
 137 0026 0120     		movs	r0, #1
 138 0028 FFF7FEFF 		bl	LedYellow_6_Write
 139              	.LVL14:
  50:ledYellow.c   ****     LedYellow_7_Write(turn_off);
 140              		.loc 1 50 0
 141 002c 0120     		movs	r0, #1
 142 002e FFF7FEFF 		bl	LedYellow_7_Write
 143              	.LVL15:
  51:ledYellow.c   **** }
 144              		.loc 1 51 0
 145              		@ sp needed
 146 0032 10BD     		pop	{r4, pc}
 147              		.cfi_endproc
 148              	.LFE35:
 149              		.size	turn_off_all_led, .-turn_off_all_led
 150              		.section	.text.turn_on_all_led,"ax",%progbits
 151              		.align	2
 152              		.global	turn_on_all_led
 153              		.code	16
 154              		.thumb_func
 155              		.type	turn_on_all_led, %function
 156              	turn_on_all_led:
 157              	.LFB36:
  52:ledYellow.c   **** 
  53:ledYellow.c   **** void turn_on_all_led()
  54:ledYellow.c   **** {
 158              		.loc 1 54 0
 159              		.cfi_startproc
 160              		@ args = 0, pretend = 0, frame = 0
 161              		@ frame_needed = 0, uses_anonymous_args = 0
 162 0000 10B5     		push	{r4, lr}
 163              		.cfi_def_cfa_offset 8
 164              		.cfi_offset 4, -8
 165              		.cfi_offset 14, -4
  55:ledYellow.c   ****     LedYellow_0_Write(turn_on);
 166              		.loc 1 55 0
 167 0002 0020     		movs	r0, #0
 168 0004 FFF7FEFF 		bl	LedYellow_0_Write
 169              	.LVL16:
  56:ledYellow.c   ****     LedYellow_1_Write(turn_on);
 170              		.loc 1 56 0
 171 0008 0020     		movs	r0, #0
 172 000a FFF7FEFF 		bl	LedYellow_1_Write
ARM GAS  C:\Users\NGUYEN~1\AppData\Local\Temp\cctTV6c3.s 			page 5


 173              	.LVL17:
  57:ledYellow.c   ****     LedYellow_2_Write(turn_on);
 174              		.loc 1 57 0
 175 000e 0020     		movs	r0, #0
 176 0010 FFF7FEFF 		bl	LedYellow_2_Write
 177              	.LVL18:
  58:ledYellow.c   ****     LedYellow_3_Write(turn_on);
 178              		.loc 1 58 0
 179 0014 0020     		movs	r0, #0
 180 0016 FFF7FEFF 		bl	LedYellow_3_Write
 181              	.LVL19:
  59:ledYellow.c   ****     LedYellow_4_Write(turn_on);
 182              		.loc 1 59 0
 183 001a 0020     		movs	r0, #0
 184 001c FFF7FEFF 		bl	LedYellow_4_Write
 185              	.LVL20:
  60:ledYellow.c   ****     LedYellow_5_Write(turn_on);
 186              		.loc 1 60 0
 187 0020 0020     		movs	r0, #0
 188 0022 FFF7FEFF 		bl	LedYellow_5_Write
 189              	.LVL21:
  61:ledYellow.c   ****     LedYellow_6_Write(turn_on);
 190              		.loc 1 61 0
 191 0026 0020     		movs	r0, #0
 192 0028 FFF7FEFF 		bl	LedYellow_6_Write
 193              	.LVL22:
  62:ledYellow.c   ****     LedYellow_7_Write(turn_on);    
 194              		.loc 1 62 0
 195 002c 0020     		movs	r0, #0
 196 002e FFF7FEFF 		bl	LedYellow_7_Write
 197              	.LVL23:
  63:ledYellow.c   **** }
 198              		.loc 1 63 0
 199              		@ sp needed
 200 0032 10BD     		pop	{r4, pc}
 201              		.cfi_endproc
 202              	.LFE36:
 203              		.size	turn_on_all_led, .-turn_on_all_led
 204              		.section	.text.location_led_light,"ax",%progbits
 205              		.align	2
 206              		.global	location_led_light
 207              		.code	16
 208              		.thumb_func
 209              		.type	location_led_light, %function
 210              	location_led_light:
 211              	.LFB37:
  64:ledYellow.c   **** 
  65:ledYellow.c   **** void location_led_light(int location)
  66:ledYellow.c   **** {
 212              		.loc 1 66 0
 213              		.cfi_startproc
 214              		@ args = 0, pretend = 0, frame = 0
 215              		@ frame_needed = 0, uses_anonymous_args = 0
 216              	.LVL24:
 217 0000 10B5     		push	{r4, lr}
 218              		.cfi_def_cfa_offset 8
 219              		.cfi_offset 4, -8
ARM GAS  C:\Users\NGUYEN~1\AppData\Local\Temp\cctTV6c3.s 			page 6


 220              		.cfi_offset 14, -4
  67:ledYellow.c   ****     switch(location)
 221              		.loc 1 67 0
 222 0002 0728     		cmp	r0, #7
 223 0004 7AD8     		bhi	.L5
 224 0006 8000     		lsls	r0, r0, #2
 225              	.LVL25:
 226 0008 3D4B     		ldr	r3, .L16
 227 000a 1B58     		ldr	r3, [r3, r0]
 228 000c 9F46     		mov	pc, r3
 229              		.section	.rodata
 230              		.align	2
 231              	.L8:
 232 0000 0E000000 		.word	.L7
 233 0004 2C000000 		.word	.L9
 234 0008 4A000000 		.word	.L10
 235 000c 68000000 		.word	.L11
 236 0010 86000000 		.word	.L12
 237 0014 A4000000 		.word	.L13
 238 0018 C2000000 		.word	.L14
 239 001c E0000000 		.word	.L15
 240              		.section	.text.location_led_light
 241              	.L7:
  68:ledYellow.c   ****     {
  69:ledYellow.c   ****         case 0:
  70:ledYellow.c   ****             LedYellow_0_Write(turn_on);
 242              		.loc 1 70 0
 243 000e 0020     		movs	r0, #0
 244 0010 FFF7FEFF 		bl	LedYellow_0_Write
 245              	.LVL26:
  71:ledYellow.c   ****             LedYellow_1_Write(turn_off);
 246              		.loc 1 71 0
 247 0014 0120     		movs	r0, #1
 248 0016 FFF7FEFF 		bl	LedYellow_1_Write
 249              	.LVL27:
  72:ledYellow.c   ****             LedYellow_2_Write(turn_off);
 250              		.loc 1 72 0
 251 001a 0120     		movs	r0, #1
 252 001c FFF7FEFF 		bl	LedYellow_2_Write
 253              	.LVL28:
  73:ledYellow.c   ****             LedYellow_3_Write(turn_off);
 254              		.loc 1 73 0
 255 0020 0120     		movs	r0, #1
 256 0022 FFF7FEFF 		bl	LedYellow_3_Write
 257              	.LVL29:
  74:ledYellow.c   ****             four_led_tall_off();
 258              		.loc 1 74 0
 259 0026 FFF7FEFF 		bl	four_led_tall_off
 260              	.LVL30:
  75:ledYellow.c   ****             break;
 261              		.loc 1 75 0
 262 002a 67E0     		b	.L5
 263              	.L9:
  76:ledYellow.c   ****         case 1:
  77:ledYellow.c   ****             LedYellow_0_Write(turn_off);
 264              		.loc 1 77 0
 265 002c 0120     		movs	r0, #1
ARM GAS  C:\Users\NGUYEN~1\AppData\Local\Temp\cctTV6c3.s 			page 7


 266 002e FFF7FEFF 		bl	LedYellow_0_Write
 267              	.LVL31:
  78:ledYellow.c   ****             LedYellow_1_Write(turn_on);
 268              		.loc 1 78 0
 269 0032 0020     		movs	r0, #0
 270 0034 FFF7FEFF 		bl	LedYellow_1_Write
 271              	.LVL32:
  79:ledYellow.c   ****             LedYellow_2_Write(turn_off);
 272              		.loc 1 79 0
 273 0038 0120     		movs	r0, #1
 274 003a FFF7FEFF 		bl	LedYellow_2_Write
 275              	.LVL33:
  80:ledYellow.c   ****             LedYellow_3_Write(turn_off);
 276              		.loc 1 80 0
 277 003e 0120     		movs	r0, #1
 278 0040 FFF7FEFF 		bl	LedYellow_3_Write
 279              	.LVL34:
  81:ledYellow.c   ****             four_led_tall_off();
 280              		.loc 1 81 0
 281 0044 FFF7FEFF 		bl	four_led_tall_off
 282              	.LVL35:
  82:ledYellow.c   ****             break;
 283              		.loc 1 82 0
 284 0048 58E0     		b	.L5
 285              	.L10:
  83:ledYellow.c   ****         case 2:
  84:ledYellow.c   ****             LedYellow_0_Write(turn_off);
 286              		.loc 1 84 0
 287 004a 0120     		movs	r0, #1
 288 004c FFF7FEFF 		bl	LedYellow_0_Write
 289              	.LVL36:
  85:ledYellow.c   ****             LedYellow_1_Write(turn_off);
 290              		.loc 1 85 0
 291 0050 0120     		movs	r0, #1
 292 0052 FFF7FEFF 		bl	LedYellow_1_Write
 293              	.LVL37:
  86:ledYellow.c   ****             LedYellow_2_Write(turn_on);
 294              		.loc 1 86 0
 295 0056 0020     		movs	r0, #0
 296 0058 FFF7FEFF 		bl	LedYellow_2_Write
 297              	.LVL38:
  87:ledYellow.c   ****             LedYellow_3_Write(turn_off);
 298              		.loc 1 87 0
 299 005c 0120     		movs	r0, #1
 300 005e FFF7FEFF 		bl	LedYellow_3_Write
 301              	.LVL39:
  88:ledYellow.c   ****             four_led_tall_off();
 302              		.loc 1 88 0
 303 0062 FFF7FEFF 		bl	four_led_tall_off
 304              	.LVL40:
  89:ledYellow.c   ****             break;
 305              		.loc 1 89 0
 306 0066 49E0     		b	.L5
 307              	.L11:
  90:ledYellow.c   ****         case 3:
  91:ledYellow.c   ****             LedYellow_0_Write(turn_off);
 308              		.loc 1 91 0
ARM GAS  C:\Users\NGUYEN~1\AppData\Local\Temp\cctTV6c3.s 			page 8


 309 0068 0120     		movs	r0, #1
 310 006a FFF7FEFF 		bl	LedYellow_0_Write
 311              	.LVL41:
  92:ledYellow.c   ****             LedYellow_1_Write(turn_off);
 312              		.loc 1 92 0
 313 006e 0120     		movs	r0, #1
 314 0070 FFF7FEFF 		bl	LedYellow_1_Write
 315              	.LVL42:
  93:ledYellow.c   ****             LedYellow_2_Write(turn_off);
 316              		.loc 1 93 0
 317 0074 0120     		movs	r0, #1
 318 0076 FFF7FEFF 		bl	LedYellow_2_Write
 319              	.LVL43:
  94:ledYellow.c   ****             LedYellow_3_Write(turn_on);
 320              		.loc 1 94 0
 321 007a 0020     		movs	r0, #0
 322 007c FFF7FEFF 		bl	LedYellow_3_Write
 323              	.LVL44:
  95:ledYellow.c   ****             four_led_tall_off();
 324              		.loc 1 95 0
 325 0080 FFF7FEFF 		bl	four_led_tall_off
 326              	.LVL45:
  96:ledYellow.c   ****             break;
 327              		.loc 1 96 0
 328 0084 3AE0     		b	.L5
 329              	.L12:
  97:ledYellow.c   ****         case 4:
  98:ledYellow.c   ****             four_led_short_off();
 330              		.loc 1 98 0
 331 0086 FFF7FEFF 		bl	four_led_short_off
 332              	.LVL46:
  99:ledYellow.c   ****             LedYellow_4_Write(turn_on);
 333              		.loc 1 99 0
 334 008a 0020     		movs	r0, #0
 335 008c FFF7FEFF 		bl	LedYellow_4_Write
 336              	.LVL47:
 100:ledYellow.c   ****             LedYellow_5_Write(turn_off);
 337              		.loc 1 100 0
 338 0090 0120     		movs	r0, #1
 339 0092 FFF7FEFF 		bl	LedYellow_5_Write
 340              	.LVL48:
 101:ledYellow.c   ****             LedYellow_6_Write(turn_off);
 341              		.loc 1 101 0
 342 0096 0120     		movs	r0, #1
 343 0098 FFF7FEFF 		bl	LedYellow_6_Write
 344              	.LVL49:
 102:ledYellow.c   ****             LedYellow_7_Write(turn_off);
 345              		.loc 1 102 0
 346 009c 0120     		movs	r0, #1
 347 009e FFF7FEFF 		bl	LedYellow_7_Write
 348              	.LVL50:
 103:ledYellow.c   ****             break;
 349              		.loc 1 103 0
 350 00a2 2BE0     		b	.L5
 351              	.L13:
 104:ledYellow.c   ****         case 5:
 105:ledYellow.c   ****             four_led_short_off();
ARM GAS  C:\Users\NGUYEN~1\AppData\Local\Temp\cctTV6c3.s 			page 9


 352              		.loc 1 105 0
 353 00a4 FFF7FEFF 		bl	four_led_short_off
 354              	.LVL51:
 106:ledYellow.c   ****             LedYellow_4_Write(turn_off);
 355              		.loc 1 106 0
 356 00a8 0120     		movs	r0, #1
 357 00aa FFF7FEFF 		bl	LedYellow_4_Write
 358              	.LVL52:
 107:ledYellow.c   ****             LedYellow_5_Write(turn_on);
 359              		.loc 1 107 0
 360 00ae 0020     		movs	r0, #0
 361 00b0 FFF7FEFF 		bl	LedYellow_5_Write
 362              	.LVL53:
 108:ledYellow.c   ****             LedYellow_6_Write(turn_off);
 363              		.loc 1 108 0
 364 00b4 0120     		movs	r0, #1
 365 00b6 FFF7FEFF 		bl	LedYellow_6_Write
 366              	.LVL54:
 109:ledYellow.c   ****             LedYellow_7_Write(turn_off);
 367              		.loc 1 109 0
 368 00ba 0120     		movs	r0, #1
 369 00bc FFF7FEFF 		bl	LedYellow_7_Write
 370              	.LVL55:
 110:ledYellow.c   ****             break;
 371              		.loc 1 110 0
 372 00c0 1CE0     		b	.L5
 373              	.L14:
 111:ledYellow.c   ****         case 6:
 112:ledYellow.c   ****             four_led_short_off();
 374              		.loc 1 112 0
 375 00c2 FFF7FEFF 		bl	four_led_short_off
 376              	.LVL56:
 113:ledYellow.c   ****             LedYellow_4_Write(turn_off);
 377              		.loc 1 113 0
 378 00c6 0120     		movs	r0, #1
 379 00c8 FFF7FEFF 		bl	LedYellow_4_Write
 380              	.LVL57:
 114:ledYellow.c   ****             LedYellow_5_Write(turn_off);
 381              		.loc 1 114 0
 382 00cc 0120     		movs	r0, #1
 383 00ce FFF7FEFF 		bl	LedYellow_5_Write
 384              	.LVL58:
 115:ledYellow.c   ****             LedYellow_6_Write(turn_on);
 385              		.loc 1 115 0
 386 00d2 0020     		movs	r0, #0
 387 00d4 FFF7FEFF 		bl	LedYellow_6_Write
 388              	.LVL59:
 116:ledYellow.c   ****             LedYellow_7_Write(turn_off);
 389              		.loc 1 116 0
 390 00d8 0120     		movs	r0, #1
 391 00da FFF7FEFF 		bl	LedYellow_7_Write
 392              	.LVL60:
 117:ledYellow.c   ****             break;
 393              		.loc 1 117 0
 394 00de 0DE0     		b	.L5
 395              	.L15:
 118:ledYellow.c   ****         case 7:
ARM GAS  C:\Users\NGUYEN~1\AppData\Local\Temp\cctTV6c3.s 			page 10


 119:ledYellow.c   ****             four_led_short_off();
 396              		.loc 1 119 0
 397 00e0 FFF7FEFF 		bl	four_led_short_off
 398              	.LVL61:
 120:ledYellow.c   ****             LedYellow_4_Write(turn_off);
 399              		.loc 1 120 0
 400 00e4 0120     		movs	r0, #1
 401 00e6 FFF7FEFF 		bl	LedYellow_4_Write
 402              	.LVL62:
 121:ledYellow.c   ****             LedYellow_5_Write(turn_off);
 403              		.loc 1 121 0
 404 00ea 0120     		movs	r0, #1
 405 00ec FFF7FEFF 		bl	LedYellow_5_Write
 406              	.LVL63:
 122:ledYellow.c   ****             LedYellow_6_Write(turn_off);
 407              		.loc 1 122 0
 408 00f0 0120     		movs	r0, #1
 409 00f2 FFF7FEFF 		bl	LedYellow_6_Write
 410              	.LVL64:
 123:ledYellow.c   ****             LedYellow_7_Write(turn_on);
 411              		.loc 1 123 0
 412 00f6 0020     		movs	r0, #0
 413 00f8 FFF7FEFF 		bl	LedYellow_7_Write
 414              	.LVL65:
 415              	.L5:
 124:ledYellow.c   ****     }
 125:ledYellow.c   **** }
 416              		.loc 1 125 0
 417              		@ sp needed
 418 00fc 10BD     		pop	{r4, pc}
 419              	.L17:
 420 00fe C046     		.align	2
 421              	.L16:
 422 0100 00000000 		.word	.L8
 423              		.cfi_endproc
 424              	.LFE37:
 425              		.size	location_led_light, .-location_led_light
 426              		.section	.text.shift_left,"ax",%progbits
 427              		.align	2
 428              		.global	shift_left
 429              		.code	16
 430              		.thumb_func
 431              		.type	shift_left, %function
 432              	shift_left:
 433              	.LFB38:
 126:ledYellow.c   **** 
 127:ledYellow.c   **** void shift_left(int location_light)
 128:ledYellow.c   **** {
 434              		.loc 1 128 0
 435              		.cfi_startproc
 436              		@ args = 0, pretend = 0, frame = 0
 437              		@ frame_needed = 0, uses_anonymous_args = 0
 438              	.LVL66:
 439 0000 10B5     		push	{r4, lr}
 440              		.cfi_def_cfa_offset 8
 441              		.cfi_offset 4, -8
 442              		.cfi_offset 14, -4
ARM GAS  C:\Users\NGUYEN~1\AppData\Local\Temp\cctTV6c3.s 			page 11


 129:ledYellow.c   ****     switch(location_light)
 443              		.loc 1 129 0
 444 0002 0728     		cmp	r0, #7
 445 0004 22D8     		bhi	.L18
 446 0006 8000     		lsls	r0, r0, #2
 447              	.LVL67:
 448 0008 114B     		ldr	r3, .L29
 449 000a 1B58     		ldr	r3, [r3, r0]
 450 000c 9F46     		mov	pc, r3
 451              		.section	.rodata
 452              		.align	2
 453              	.L21:
 454 0020 0E000000 		.word	.L20
 455 0024 16000000 		.word	.L22
 456 0028 1E000000 		.word	.L23
 457 002c 26000000 		.word	.L24
 458 0030 2E000000 		.word	.L25
 459 0034 36000000 		.word	.L26
 460 0038 3E000000 		.word	.L27
 461 003c 46000000 		.word	.L28
 462              		.section	.text.shift_left
 463              	.L20:
 130:ledYellow.c   ****     {
 131:ledYellow.c   ****         case 0:
 132:ledYellow.c   ****             location_led_light(0);
 464              		.loc 1 132 0
 465 000e 0020     		movs	r0, #0
 466 0010 FFF7FEFF 		bl	location_led_light
 467              	.LVL68:
 133:ledYellow.c   ****             break;
 468              		.loc 1 133 0
 469 0014 1AE0     		b	.L18
 470              	.L22:
 134:ledYellow.c   ****         case 1:
 135:ledYellow.c   ****             location_led_light(1);
 471              		.loc 1 135 0
 472 0016 0120     		movs	r0, #1
 473 0018 FFF7FEFF 		bl	location_led_light
 474              	.LVL69:
 136:ledYellow.c   ****             break;
 475              		.loc 1 136 0
 476 001c 16E0     		b	.L18
 477              	.L23:
 137:ledYellow.c   ****         case 2:
 138:ledYellow.c   ****             location_led_light(2);
 478              		.loc 1 138 0
 479 001e 0220     		movs	r0, #2
 480 0020 FFF7FEFF 		bl	location_led_light
 481              	.LVL70:
 139:ledYellow.c   ****             break;
 482              		.loc 1 139 0
 483 0024 12E0     		b	.L18
 484              	.L24:
 140:ledYellow.c   ****         case 3:
 141:ledYellow.c   ****             location_led_light(3);
 485              		.loc 1 141 0
 486 0026 0320     		movs	r0, #3
ARM GAS  C:\Users\NGUYEN~1\AppData\Local\Temp\cctTV6c3.s 			page 12


 487 0028 FFF7FEFF 		bl	location_led_light
 488              	.LVL71:
 142:ledYellow.c   ****             break;
 489              		.loc 1 142 0
 490 002c 0EE0     		b	.L18
 491              	.L25:
 143:ledYellow.c   ****         case 4:
 144:ledYellow.c   ****             location_led_light(4);
 492              		.loc 1 144 0
 493 002e 0420     		movs	r0, #4
 494 0030 FFF7FEFF 		bl	location_led_light
 495              	.LVL72:
 145:ledYellow.c   ****             break;
 496              		.loc 1 145 0
 497 0034 0AE0     		b	.L18
 498              	.L26:
 146:ledYellow.c   ****         case 5:
 147:ledYellow.c   ****             location_led_light(5);
 499              		.loc 1 147 0
 500 0036 0520     		movs	r0, #5
 501 0038 FFF7FEFF 		bl	location_led_light
 502              	.LVL73:
 148:ledYellow.c   ****             break;
 503              		.loc 1 148 0
 504 003c 06E0     		b	.L18
 505              	.L27:
 149:ledYellow.c   ****         case 6:
 150:ledYellow.c   ****             location_led_light(6);
 506              		.loc 1 150 0
 507 003e 0620     		movs	r0, #6
 508 0040 FFF7FEFF 		bl	location_led_light
 509              	.LVL74:
 151:ledYellow.c   ****             break;
 510              		.loc 1 151 0
 511 0044 02E0     		b	.L18
 512              	.L28:
 152:ledYellow.c   ****         case 7:
 153:ledYellow.c   ****             location_led_light(7);
 513              		.loc 1 153 0
 514 0046 0720     		movs	r0, #7
 515 0048 FFF7FEFF 		bl	location_led_light
 516              	.LVL75:
 517              	.L18:
 154:ledYellow.c   ****     }
 155:ledYellow.c   **** }
 518              		.loc 1 155 0
 519              		@ sp needed
 520 004c 10BD     		pop	{r4, pc}
 521              	.L30:
 522 004e C046     		.align	2
 523              	.L29:
 524 0050 20000000 		.word	.L21
 525              		.cfi_endproc
 526              	.LFE38:
 527              		.size	shift_left, .-shift_left
 528              		.section	.text.shift_right,"ax",%progbits
 529              		.align	2
ARM GAS  C:\Users\NGUYEN~1\AppData\Local\Temp\cctTV6c3.s 			page 13


 530              		.global	shift_right
 531              		.code	16
 532              		.thumb_func
 533              		.type	shift_right, %function
 534              	shift_right:
 535              	.LFB39:
 156:ledYellow.c   **** 
 157:ledYellow.c   **** void shift_right(int location_light)
 158:ledYellow.c   **** {
 536              		.loc 1 158 0
 537              		.cfi_startproc
 538              		@ args = 0, pretend = 0, frame = 0
 539              		@ frame_needed = 0, uses_anonymous_args = 0
 540              	.LVL76:
 541 0000 10B5     		push	{r4, lr}
 542              		.cfi_def_cfa_offset 8
 543              		.cfi_offset 4, -8
 544              		.cfi_offset 14, -4
 159:ledYellow.c   ****     switch( 7 - location_light )
 545              		.loc 1 159 0
 546 0002 0723     		movs	r3, #7
 547 0004 181A     		subs	r0, r3, r0
 548              	.LVL77:
 549 0006 0728     		cmp	r0, #7
 550 0008 22D8     		bhi	.L31
 551 000a 8000     		lsls	r0, r0, #2
 552 000c 114B     		ldr	r3, .L42
 553 000e 1B58     		ldr	r3, [r3, r0]
 554 0010 9F46     		mov	pc, r3
 555              		.section	.rodata
 556              		.align	2
 557              	.L34:
 558 0040 12000000 		.word	.L33
 559 0044 1A000000 		.word	.L35
 560 0048 22000000 		.word	.L36
 561 004c 2A000000 		.word	.L37
 562 0050 32000000 		.word	.L38
 563 0054 3A000000 		.word	.L39
 564 0058 42000000 		.word	.L40
 565 005c 4A000000 		.word	.L41
 566              		.section	.text.shift_right
 567              	.L33:
 160:ledYellow.c   ****     {
 161:ledYellow.c   ****         case 0:
 162:ledYellow.c   ****             location_led_light(0);
 568              		.loc 1 162 0
 569 0012 0020     		movs	r0, #0
 570 0014 FFF7FEFF 		bl	location_led_light
 571              	.LVL78:
 163:ledYellow.c   ****             break;
 572              		.loc 1 163 0
 573 0018 1AE0     		b	.L31
 574              	.L35:
 164:ledYellow.c   ****         case 1:
 165:ledYellow.c   ****             location_led_light(1);
 575              		.loc 1 165 0
 576 001a 0120     		movs	r0, #1
ARM GAS  C:\Users\NGUYEN~1\AppData\Local\Temp\cctTV6c3.s 			page 14


 577 001c FFF7FEFF 		bl	location_led_light
 578              	.LVL79:
 166:ledYellow.c   ****             break;
 579              		.loc 1 166 0
 580 0020 16E0     		b	.L31
 581              	.L36:
 167:ledYellow.c   ****         case 2:
 168:ledYellow.c   ****             location_led_light(2);
 582              		.loc 1 168 0
 583 0022 0220     		movs	r0, #2
 584 0024 FFF7FEFF 		bl	location_led_light
 585              	.LVL80:
 169:ledYellow.c   ****             break;
 586              		.loc 1 169 0
 587 0028 12E0     		b	.L31
 588              	.L37:
 170:ledYellow.c   ****         case 3:
 171:ledYellow.c   ****             location_led_light(3);
 589              		.loc 1 171 0
 590 002a 0320     		movs	r0, #3
 591 002c FFF7FEFF 		bl	location_led_light
 592              	.LVL81:
 172:ledYellow.c   ****             break;
 593              		.loc 1 172 0
 594 0030 0EE0     		b	.L31
 595              	.L38:
 173:ledYellow.c   ****         case 4:
 174:ledYellow.c   ****             location_led_light(4);
 596              		.loc 1 174 0
 597 0032 0420     		movs	r0, #4
 598 0034 FFF7FEFF 		bl	location_led_light
 599              	.LVL82:
 175:ledYellow.c   ****             break;
 600              		.loc 1 175 0
 601 0038 0AE0     		b	.L31
 602              	.L39:
 176:ledYellow.c   ****         case 5:
 177:ledYellow.c   ****             location_led_light(5);
 603              		.loc 1 177 0
 604 003a 0520     		movs	r0, #5
 605 003c FFF7FEFF 		bl	location_led_light
 606              	.LVL83:
 178:ledYellow.c   ****             break;
 607              		.loc 1 178 0
 608 0040 06E0     		b	.L31
 609              	.L40:
 179:ledYellow.c   ****         case 6:
 180:ledYellow.c   ****             location_led_light(6);
 610              		.loc 1 180 0
 611 0042 0620     		movs	r0, #6
 612 0044 FFF7FEFF 		bl	location_led_light
 613              	.LVL84:
 181:ledYellow.c   ****             break;
 614              		.loc 1 181 0
 615 0048 02E0     		b	.L31
 616              	.L41:
 182:ledYellow.c   ****         case 7:
ARM GAS  C:\Users\NGUYEN~1\AppData\Local\Temp\cctTV6c3.s 			page 15


 183:ledYellow.c   ****             location_led_light(7);
 617              		.loc 1 183 0
 618 004a 0720     		movs	r0, #7
 619 004c FFF7FEFF 		bl	location_led_light
 620              	.LVL85:
 621              	.L31:
 184:ledYellow.c   ****     }
 185:ledYellow.c   **** }
 622              		.loc 1 185 0
 623              		@ sp needed
 624 0050 10BD     		pop	{r4, pc}
 625              	.L43:
 626 0052 C046     		.align	2
 627              	.L42:
 628 0054 40000000 		.word	.L34
 629              		.cfi_endproc
 630              	.LFE39:
 631              		.size	shift_right, .-shift_right
 632              		.section	.text.flicker_8_led,"ax",%progbits
 633              		.align	2
 634              		.global	flicker_8_led
 635              		.code	16
 636              		.thumb_func
 637              		.type	flicker_8_led, %function
 638              	flicker_8_led:
 639              	.LFB40:
 186:ledYellow.c   **** 
 187:ledYellow.c   **** void flicker_8_led(unsigned long delay_s)
 188:ledYellow.c   **** {
 640              		.loc 1 188 0
 641              		.cfi_startproc
 642              		@ args = 0, pretend = 0, frame = 0
 643              		@ frame_needed = 0, uses_anonymous_args = 0
 644              	.LVL86:
 645 0000 10B5     		push	{r4, lr}
 646              		.cfi_def_cfa_offset 8
 647              		.cfi_offset 4, -8
 648              		.cfi_offset 14, -4
 189:ledYellow.c   ****     static int flag_led = 0;
 190:ledYellow.c   ****     
 191:ledYellow.c   ****     if(counter1_s - time_current >= delay_s)
 649              		.loc 1 191 0
 650 0002 0C4B     		ldr	r3, .L48
 651 0004 1B68     		ldr	r3, [r3]
 652 0006 0C4A     		ldr	r2, .L48+4
 653 0008 1268     		ldr	r2, [r2]
 654 000a 9B1A     		subs	r3, r3, r2
 655 000c 8342     		cmp	r3, r0
 656 000e 06D3     		bcc	.L45
 192:ledYellow.c   ****     {
 193:ledYellow.c   ****         flag_led = ~flag_led;
 657              		.loc 1 193 0
 658 0010 094B     		ldr	r3, .L48+4
 659 0012 5A68     		ldr	r2, [r3, #4]
 660 0014 D243     		mvns	r2, r2
 661 0016 5A60     		str	r2, [r3, #4]
 194:ledYellow.c   ****         time_current = counter1_s;
ARM GAS  C:\Users\NGUYEN~1\AppData\Local\Temp\cctTV6c3.s 			page 16


 662              		.loc 1 194 0
 663 0018 064A     		ldr	r2, .L48
 664 001a 1268     		ldr	r2, [r2]
 665 001c 1A60     		str	r2, [r3]
 666              	.L45:
 195:ledYellow.c   ****     }
 196:ledYellow.c   ****     
 197:ledYellow.c   ****     if(flag_led == 0)    
 667              		.loc 1 197 0
 668 001e 064B     		ldr	r3, .L48+4
 669 0020 5B68     		ldr	r3, [r3, #4]
 670 0022 002B     		cmp	r3, #0
 671 0024 02D1     		bne	.L46
 198:ledYellow.c   ****         turn_off_all_led();
 672              		.loc 1 198 0
 673 0026 FFF7FEFF 		bl	turn_off_all_led
 674              	.LVL87:
 675 002a 01E0     		b	.L44
 676              	.LVL88:
 677              	.L46:
 199:ledYellow.c   ****     else
 200:ledYellow.c   ****         turn_on_all_led();    
 678              		.loc 1 200 0
 679 002c FFF7FEFF 		bl	turn_on_all_led
 680              	.LVL89:
 681              	.L44:
 201:ledYellow.c   **** }
 682              		.loc 1 201 0
 683              		@ sp needed
 684 0030 10BD     		pop	{r4, pc}
 685              	.L49:
 686 0032 C046     		.align	2
 687              	.L48:
 688 0034 00000000 		.word	counter1_s
 689 0038 00000000 		.word	.LANCHOR0
 690              		.cfi_endproc
 691              	.LFE40:
 692              		.size	flicker_8_led, .-flicker_8_led
 693              		.global	time_current
 694              		.bss
 695              		.align	2
 696              		.set	.LANCHOR0,. + 0
 697              		.type	time_current, %object
 698              		.size	time_current, 4
 699              	time_current:
 700 0000 00000000 		.space	4
 701              		.type	flag_led.6566, %object
 702              		.size	flag_led.6566, 4
 703              	flag_led.6566:
 704 0004 00000000 		.space	4
 705              		.text
 706              	.Letext0:
 707              		.file 2 "Generated_Source\\PSoC4/LedYellow_0.h"
 708              		.file 3 "Generated_Source\\PSoC4/LedYellow_1.h"
 709              		.file 4 "Generated_Source\\PSoC4/LedYellow_2.h"
 710              		.file 5 "Generated_Source\\PSoC4/LedYellow_3.h"
 711              		.file 6 "Generated_Source\\PSoC4/LedYellow_4.h"
ARM GAS  C:\Users\NGUYEN~1\AppData\Local\Temp\cctTV6c3.s 			page 17


 712              		.file 7 "Generated_Source\\PSoC4/LedYellow_5.h"
 713              		.file 8 "Generated_Source\\PSoC4/LedYellow_6.h"
 714              		.file 9 "Generated_Source\\PSoC4/LedYellow_7.h"