ARM GAS  C:\Users\NGUYEN~1\AppData\Local\Temp\ccCOztsO.s 			page 1


   1              		.syntax unified
   2              		.cpu cortex-m0
   3              		.fpu softvfp
   4              		.eabi_attribute 20, 1
   5              		.eabi_attribute 21, 1
   6              		.eabi_attribute 23, 3
   7              		.eabi_attribute 24, 1
   8              		.eabi_attribute 25, 1
   9              		.eabi_attribute 26, 1
  10              		.eabi_attribute 30, 1
  11              		.eabi_attribute 34, 0
  12              		.eabi_attribute 18, 4
  13              		.thumb
  14              		.syntax unified
  15              		.file	"main.c"
  16              		.text
  17              	.Ltext0:
  18              		.cfi_sections	.debug_frame
  19              		.section	.text.system_init,"ax",%progbits
  20              		.align	2
  21              		.global	system_init
  22              		.code	16
  23              		.thumb_func
  24              		.type	system_init, %function
  25              	system_init:
  26              	.LFB34:
  27              		.file 1 "main.c"
   1:main.c        **** /* ========================================
   2:main.c        ****  *
   3:main.c        ****  * Copyright YOUR COMPANY, THE YEAR
   4:main.c        ****  * All Rights Reserved
   5:main.c        ****  * UNPUBLISHED, LICENSED SOFTWARE.
   6:main.c        ****  *
   7:main.c        ****  * CONFIDENTIAL AND PROPRIETARY INFORMATION
   8:main.c        ****  * WHICH IS THE PROPERTY OF your company.
   9:main.c        ****  *
  10:main.c        ****  * ========================================
  11:main.c        **** */
  12:main.c        **** #include "main.h"
  13:main.c        **** 
  14:main.c        **** #include <stdio.h>
  15:main.c        **** #include "project.h"
  16:main.c        **** #include "timer_system.h"
  17:main.c        **** #include "eeprom_external.h"
  18:main.c        **** #include "ledYellow.h"
  19:main.c        **** 
  20:main.c        **** extern volatile int counter_shift_led;
  21:main.c        **** 
  22:main.c        **** int main(void)
  23:main.c        **** {
  24:main.c        ****     CyGlobalIntEnable; /* Enable global interrupts. */
  25:main.c        ****     
  26:main.c        ****     system_init();
  27:main.c        ****     
  28:main.c        ****     for(;;)
  29:main.c        ****     {          
  30:main.c        ****         //write_and_read_a_byte_24c08();
ARM GAS  C:\Users\NGUYEN~1\AppData\Local\Temp\ccCOztsO.s 			page 2


  31:main.c        ****         
  32:main.c        ****         write_and_read_page_24c08();
  33:main.c        ****         
  34:main.c        ****         //write_and_read_a_byte_24c256();
  35:main.c        ****         
  36:main.c        ****         //write_and_read_page_24c256();
  37:main.c        ****         
  38:main.c        **** 
  39:main.c        ****         LedYellow_0_Write(~LedYellow_0_Read());
  40:main.c        ****         CyDelay(1000);
  41:main.c        ****     }
  42:main.c        **** }
  43:main.c        **** 
  44:main.c        **** void system_init()
  45:main.c        **** {
  28              		.loc 1 45 0
  29              		.cfi_startproc
  30              		@ args = 0, pretend = 0, frame = 0
  31              		@ frame_needed = 0, uses_anonymous_args = 0
  32 0000 10B5     		push	{r4, lr}
  33              		.cfi_def_cfa_offset 8
  34              		.cfi_offset 4, -8
  35              		.cfi_offset 14, -4
  46:main.c        ****     i2c_Start();
  36              		.loc 1 46 0
  37 0002 FFF7FEFF 		bl	i2c_Start
  38              	.LVL0:
  47:main.c        ****     
  48:main.c        ****     timer_Start();
  39              		.loc 1 48 0
  40 0006 FFF7FEFF 		bl	timer_Start
  41              	.LVL1:
  49:main.c        ****     
  50:main.c        ****     initTimeInterrupt();
  42              		.loc 1 50 0
  43 000a FFF7FEFF 		bl	initTimeInterrupt
  44              	.LVL2:
  51:main.c        ****     
  52:main.c        ****     uart_Start();
  45              		.loc 1 52 0
  46 000e FFF7FEFF 		bl	uart_Start
  47              	.LVL3:
  53:main.c        ****     
  54:main.c        ****     turn_off_all_led();
  48              		.loc 1 54 0
  49 0012 FFF7FEFF 		bl	turn_off_all_led
  50              	.LVL4:
  55:main.c        **** }
  51              		.loc 1 55 0
  52              		@ sp needed
  53 0016 10BD     		pop	{r4, pc}
  54              		.cfi_endproc
  55              	.LFE34:
  56              		.size	system_init, .-system_init
  57              		.section	.text.write_and_read_a_byte_24c08,"ax",%progbits
  58              		.align	2
  59              		.global	write_and_read_a_byte_24c08
ARM GAS  C:\Users\NGUYEN~1\AppData\Local\Temp\ccCOztsO.s 			page 3


  60              		.code	16
  61              		.thumb_func
  62              		.type	write_and_read_a_byte_24c08, %function
  63              	write_and_read_a_byte_24c08:
  64              	.LFB35:
  56:main.c        **** 
  57:main.c        **** void write_and_read_a_byte_24c08()
  58:main.c        **** {
  65              		.loc 1 58 0
  66              		.cfi_startproc
  67              		@ args = 0, pretend = 0, frame = 16
  68              		@ frame_needed = 0, uses_anonymous_args = 0
  69 0000 00B5     		push	{lr}
  70              		.cfi_def_cfa_offset 4
  71              		.cfi_offset 14, -4
  72 0002 85B0     		sub	sp, sp, #20
  73              		.cfi_def_cfa_offset 24
  74              	.LVL5:
  59:main.c        ****     char stringss[10];
  60:main.c        ****     int data_read_eeprom = 0x00;
  61:main.c        ****     
  62:main.c        ****     /*
  63:main.c        ****         After write data to eeprom --> must delay,
  64:main.c        ****         if not delay --> program stop, not run
  65:main.c        ****     */
  66:main.c        ****     eeprom_write_a_byte_08(0x03, 0x15);
  75              		.loc 1 66 0
  76 0004 1521     		movs	r1, #21
  77 0006 0320     		movs	r0, #3
  78 0008 FFF7FEFF 		bl	eeprom_write_a_byte_08
  79              	.LVL6:
  67:main.c        ****     CyDelay(100);
  80              		.loc 1 67 0
  81 000c 6420     		movs	r0, #100
  82 000e FFF7FEFF 		bl	CyDelay
  83              	.LVL7:
  68:main.c        ****     
  69:main.c        ****     data_read_eeprom = eeprom_read_a_byte_08(0x03);
  84              		.loc 1 69 0
  85 0012 0320     		movs	r0, #3
  86 0014 FFF7FEFF 		bl	eeprom_read_a_byte_08
  87              	.LVL8:
  88 0018 0200     		movs	r2, r0
  89              	.LVL9:
  70:main.c        ****     
  71:main.c        ****     sprintf(stringss, "%u\n", data_read_eeprom);
  90              		.loc 1 71 0
  91 001a 0449     		ldr	r1, .L3
  92 001c 01A8     		add	r0, sp, #4
  93              	.LVL10:
  94 001e FFF7FEFF 		bl	sprintf
  95              	.LVL11:
  72:main.c        ****     uart_UartPutString(stringss);
  96              		.loc 1 72 0
  97 0022 01A8     		add	r0, sp, #4
  98 0024 FFF7FEFF 		bl	uart_UartPutString
  99              	.LVL12:
ARM GAS  C:\Users\NGUYEN~1\AppData\Local\Temp\ccCOztsO.s 			page 4


  73:main.c        **** }
 100              		.loc 1 73 0
 101 0028 05B0     		add	sp, sp, #20
 102              		@ sp needed
 103 002a 00BD     		pop	{pc}
 104              	.L4:
 105              		.align	2
 106              	.L3:
 107 002c 00000000 		.word	.LC2
 108              		.cfi_endproc
 109              	.LFE35:
 110              		.size	write_and_read_a_byte_24c08, .-write_and_read_a_byte_24c08
 111              		.section	.text.write_and_read_page_24c08,"ax",%progbits
 112              		.align	2
 113              		.global	write_and_read_page_24c08
 114              		.code	16
 115              		.thumb_func
 116              		.type	write_and_read_page_24c08, %function
 117              	write_and_read_page_24c08:
 118              	.LFB36:
  74:main.c        **** 
  75:main.c        **** void write_and_read_page_24c08()
  76:main.c        **** {
 119              		.loc 1 76 0
 120              		.cfi_startproc
 121              		@ args = 0, pretend = 0, frame = 88
 122              		@ frame_needed = 0, uses_anonymous_args = 0
 123 0000 30B5     		push	{r4, r5, lr}
 124              		.cfi_def_cfa_offset 12
 125              		.cfi_offset 4, -12
 126              		.cfi_offset 5, -8
 127              		.cfi_offset 14, -4
 128 0002 97B0     		sub	sp, sp, #92
 129              		.cfi_def_cfa_offset 104
 130              	.LVL13:
  77:main.c        ****     int i, length = 10;
  78:main.c        ****     char string_convert[30];
  79:main.c        ****     uint8 string_read[11];
  80:main.c        ****     uint32 string_write[] = {0x11, 0x01, 0x02, 0x02, 0x03, 0x03, 0x03, 0x03, 0x03, 0xFF};
 131              		.loc 1 80 0
 132 0004 01A9     		add	r1, sp, #4
 133 0006 1848     		ldr	r0, .L10
 134 0008 0B00     		movs	r3, r1
 135 000a 0200     		movs	r2, r0
 136 000c 31CA     		ldmia	r2!, {r0, r4, r5}
 137 000e 31C3     		stmia	r3!, {r0, r4, r5}
 138 0010 31CA     		ldmia	r2!, {r0, r4, r5}
 139 0012 31C3     		stmia	r3!, {r0, r4, r5}
 140 0014 31CA     		ldmia	r2!, {r0, r4, r5}
 141 0016 31C3     		stmia	r3!, {r0, r4, r5}
 142 0018 1268     		ldr	r2, [r2]
 143 001a 1A60     		str	r2, [r3]
  81:main.c        ****     
  82:main.c        ****     eeprom_write_page_08(0x03, string_write, length);
 144              		.loc 1 82 0
 145 001c 0A22     		movs	r2, #10
 146 001e 0320     		movs	r0, #3
ARM GAS  C:\Users\NGUYEN~1\AppData\Local\Temp\ccCOztsO.s 			page 5


 147 0020 FFF7FEFF 		bl	eeprom_write_page_08
 148              	.LVL14:
  83:main.c        ****     CyDelay(1000);
 149              		.loc 1 83 0
 150 0024 FA20     		movs	r0, #250
 151 0026 8000     		lsls	r0, r0, #2
 152 0028 FFF7FEFF 		bl	CyDelay
 153              	.LVL15:
  84:main.c        ****     
  85:main.c        ****     eeprom_read_page_08(0x03, string_read, length);
 154              		.loc 1 85 0
 155 002c 0A22     		movs	r2, #10
 156 002e 0BA9     		add	r1, sp, #44
 157 0030 0320     		movs	r0, #3
 158 0032 FFF7FEFF 		bl	eeprom_read_page_08
 159              	.LVL16:
  86:main.c        ****     
  87:main.c        ****     for(i=0; i<length; i++)
 160              		.loc 1 87 0
 161 0036 0024     		movs	r4, #0
 162 0038 12E0     		b	.L6
 163              	.LVL17:
 164              	.L9:
  88:main.c        ****     {
  89:main.c        ****         if(i==0)
 165              		.loc 1 89 0
 166 003a 002C     		cmp	r4, #0
 167 003c 06D1     		bne	.L7
  90:main.c        ****             sprintf(string_convert, "\nStart\n%u\n", string_read[i]);
 168              		.loc 1 90 0
 169 003e 0BAB     		add	r3, sp, #44
 170 0040 1A5D     		ldrb	r2, [r3, r4]
 171 0042 0A49     		ldr	r1, .L10+4
 172 0044 0EA8     		add	r0, sp, #56
 173 0046 FFF7FEFF 		bl	sprintf
 174              	.LVL18:
 175 004a 05E0     		b	.L8
 176              	.L7:
  91:main.c        ****         else
  92:main.c        ****             sprintf(string_convert, "%u\n", string_read[i]);
 177              		.loc 1 92 0
 178 004c 0BAB     		add	r3, sp, #44
 179 004e 1A5D     		ldrb	r2, [r3, r4]
 180 0050 0749     		ldr	r1, .L10+8
 181 0052 0EA8     		add	r0, sp, #56
 182 0054 FFF7FEFF 		bl	sprintf
 183              	.LVL19:
 184              	.L8:
  93:main.c        ****             
  94:main.c        ****         uart_UartPutString(string_convert);
 185              		.loc 1 94 0 discriminator 2
 186 0058 0EA8     		add	r0, sp, #56
 187 005a FFF7FEFF 		bl	uart_UartPutString
 188              	.LVL20:
  87:main.c        ****     {
 189              		.loc 1 87 0 discriminator 2
 190 005e 0134     		adds	r4, r4, #1
ARM GAS  C:\Users\NGUYEN~1\AppData\Local\Temp\ccCOztsO.s 			page 6


 191              	.LVL21:
 192              	.L6:
  87:main.c        ****     {
 193              		.loc 1 87 0 is_stmt 0 discriminator 1
 194 0060 092C     		cmp	r4, #9
 195 0062 EADD     		ble	.L9
  95:main.c        ****     } 
  96:main.c        **** }
 196              		.loc 1 96 0 is_stmt 1
 197 0064 17B0     		add	sp, sp, #92
 198              		@ sp needed
 199              	.LVL22:
 200 0066 30BD     		pop	{r4, r5, pc}
 201              	.L11:
 202              		.align	2
 203              	.L10:
 204 0068 00000000 		.word	.LANCHOR0
 205 006c 04000000 		.word	.LC5
 206 0070 00000000 		.word	.LC2
 207              		.cfi_endproc
 208              	.LFE36:
 209              		.size	write_and_read_page_24c08, .-write_and_read_page_24c08
 210              		.section	.text.main,"ax",%progbits
 211              		.align	2
 212              		.global	main
 213              		.code	16
 214              		.thumb_func
 215              		.type	main, %function
 216              	main:
 217              	.LFB33:
  23:main.c        ****     CyGlobalIntEnable; /* Enable global interrupts. */
 218              		.loc 1 23 0
 219              		.cfi_startproc
 220              		@ Volatile: function does not return.
 221              		@ args = 0, pretend = 0, frame = 0
 222              		@ frame_needed = 0, uses_anonymous_args = 0
 223 0000 10B5     		push	{r4, lr}
 224              		.cfi_def_cfa_offset 8
 225              		.cfi_offset 4, -8
 226              		.cfi_offset 14, -4
  24:main.c        ****     
 227              		.loc 1 24 0
 228              		.syntax divided
 229              	@ 24 "main.c" 1
 230 0002 62B6     		CPSIE   i
 231              	@ 0 "" 2
  26:main.c        ****     
 232              		.loc 1 26 0
 233              		.thumb
 234              		.syntax unified
 235 0004 FFF7FEFF 		bl	system_init
 236              	.LVL23:
 237              	.L13:
  32:main.c        ****         
 238              		.loc 1 32 0 discriminator 1
 239 0008 FFF7FEFF 		bl	write_and_read_page_24c08
 240              	.LVL24:
ARM GAS  C:\Users\NGUYEN~1\AppData\Local\Temp\ccCOztsO.s 			page 7


  39:main.c        ****         CyDelay(1000);
 241              		.loc 1 39 0 discriminator 1
 242 000c FFF7FEFF 		bl	LedYellow_0_Read
 243              	.LVL25:
 244 0010 C043     		mvns	r0, r0
 245 0012 C0B2     		uxtb	r0, r0
 246 0014 FFF7FEFF 		bl	LedYellow_0_Write
 247              	.LVL26:
  40:main.c        ****     }
 248              		.loc 1 40 0 discriminator 1
 249 0018 FA20     		movs	r0, #250
 250 001a 8000     		lsls	r0, r0, #2
 251 001c FFF7FEFF 		bl	CyDelay
 252              	.LVL27:
 253 0020 F2E7     		b	.L13
 254              		.cfi_endproc
 255              	.LFE33:
 256              		.size	main, .-main
 257 0022 C046     		.section	.text.write_and_read_a_byte_24c256,"ax",%progbits
 258              		.align	2
 259              		.global	write_and_read_a_byte_24c256
 260              		.code	16
 261              		.thumb_func
 262              		.type	write_and_read_a_byte_24c256, %function
 263              	write_and_read_a_byte_24c256:
 264              	.LFB37:
  97:main.c        **** 
  98:main.c        **** 
  99:main.c        **** void write_and_read_a_byte_24c256()
 100:main.c        **** {
 265              		.loc 1 100 0
 266              		.cfi_startproc
 267              		@ args = 0, pretend = 0, frame = 16
 268              		@ frame_needed = 0, uses_anonymous_args = 0
 269 0000 00B5     		push	{lr}
 270              		.cfi_def_cfa_offset 4
 271              		.cfi_offset 14, -4
 272 0002 85B0     		sub	sp, sp, #20
 273              		.cfi_def_cfa_offset 24
 274              	.LVL28:
 101:main.c        ****     char stringss[10];
 102:main.c        ****     int data_read_eeprom = 0x00;
 103:main.c        ****     
 104:main.c        ****     /*
 105:main.c        ****         After write data to eeprom --> must delay,
 106:main.c        ****         if not delay --> program stop, not run
 107:main.c        ****     */
 108:main.c        ****     eeprom_write_a_byte_256(0x03, 0x0F);
 275              		.loc 1 108 0
 276 0004 0F21     		movs	r1, #15
 277 0006 0320     		movs	r0, #3
 278 0008 FFF7FEFF 		bl	eeprom_write_a_byte_256
 279              	.LVL29:
 109:main.c        ****     CyDelay(100);
 280              		.loc 1 109 0
 281 000c 6420     		movs	r0, #100
 282 000e FFF7FEFF 		bl	CyDelay
ARM GAS  C:\Users\NGUYEN~1\AppData\Local\Temp\ccCOztsO.s 			page 8


 283              	.LVL30:
 110:main.c        ****     
 111:main.c        ****     data_read_eeprom = eeprom_read_a_byte_256(0x03);
 284              		.loc 1 111 0
 285 0012 0320     		movs	r0, #3
 286 0014 FFF7FEFF 		bl	eeprom_read_a_byte_256
 287              	.LVL31:
 288 0018 0200     		movs	r2, r0
 289              	.LVL32:
 112:main.c        ****     
 113:main.c        ****     sprintf(stringss, "%u\n", data_read_eeprom);
 290              		.loc 1 113 0
 291 001a 0449     		ldr	r1, .L15
 292 001c 01A8     		add	r0, sp, #4
 293              	.LVL33:
 294 001e FFF7FEFF 		bl	sprintf
 295              	.LVL34:
 114:main.c        ****     uart_UartPutString(stringss);
 296              		.loc 1 114 0
 297 0022 01A8     		add	r0, sp, #4
 298 0024 FFF7FEFF 		bl	uart_UartPutString
 299              	.LVL35:
 115:main.c        **** }
 300              		.loc 1 115 0
 301 0028 05B0     		add	sp, sp, #20
 302              		@ sp needed
 303 002a 00BD     		pop	{pc}
 304              	.L16:
 305              		.align	2
 306              	.L15:
 307 002c 00000000 		.word	.LC2
 308              		.cfi_endproc
 309              	.LFE37:
 310              		.size	write_and_read_a_byte_24c256, .-write_and_read_a_byte_24c256
 311              		.section	.text.write_and_read_page_24c256,"ax",%progbits
 312              		.align	2
 313              		.global	write_and_read_page_24c256
 314              		.code	16
 315              		.thumb_func
 316              		.type	write_and_read_page_24c256, %function
 317              	write_and_read_page_24c256:
 318              	.LFB38:
 116:main.c        **** 
 117:main.c        **** void write_and_read_page_24c256()
 118:main.c        **** {
 319              		.loc 1 118 0
 320              		.cfi_startproc
 321              		@ args = 0, pretend = 0, frame = 88
 322              		@ frame_needed = 0, uses_anonymous_args = 0
 323 0000 30B5     		push	{r4, r5, lr}
 324              		.cfi_def_cfa_offset 12
 325              		.cfi_offset 4, -12
 326              		.cfi_offset 5, -8
 327              		.cfi_offset 14, -4
 328 0002 97B0     		sub	sp, sp, #92
 329              		.cfi_def_cfa_offset 104
 119:main.c        ****     int i;
ARM GAS  C:\Users\NGUYEN~1\AppData\Local\Temp\ccCOztsO.s 			page 9


 120:main.c        ****     char string_convert[30];
 121:main.c        ****     uint8 string_read[11];
 122:main.c        ****     uint32 string_write[] = {0x1, 0x01, 0x02, 0x02, 0x05, 0x06, 0x07, 0x08, 0x09, 0xFF};
 330              		.loc 1 122 0
 331 0004 01A9     		add	r1, sp, #4
 332 0006 0A00     		movs	r2, r1
 333 0008 174B     		ldr	r3, .L22
 334 000a 2833     		adds	r3, r3, #40
 335 000c 31CB     		ldmia	r3!, {r0, r4, r5}
 336 000e 31C2     		stmia	r2!, {r0, r4, r5}
 337 0010 31CB     		ldmia	r3!, {r0, r4, r5}
 338 0012 31C2     		stmia	r2!, {r0, r4, r5}
 339 0014 31CB     		ldmia	r3!, {r0, r4, r5}
 340 0016 31C2     		stmia	r2!, {r0, r4, r5}
 341 0018 1B68     		ldr	r3, [r3]
 342 001a 1360     		str	r3, [r2]
 123:main.c        ****     
 124:main.c        ****     eeprom_write_page_256(0x01, string_write, 10);
 343              		.loc 1 124 0
 344 001c 0A22     		movs	r2, #10
 345 001e 0120     		movs	r0, #1
 346 0020 FFF7FEFF 		bl	eeprom_write_page_256
 347              	.LVL36:
 125:main.c        ****     CyDelay(1000);
 348              		.loc 1 125 0
 349 0024 FA20     		movs	r0, #250
 350 0026 8000     		lsls	r0, r0, #2
 351 0028 FFF7FEFF 		bl	CyDelay
 352              	.LVL37:
 126:main.c        ****     
 127:main.c        ****     eeprom_read_page_256(0x01, string_read, 10);
 353              		.loc 1 127 0
 354 002c 0A22     		movs	r2, #10
 355 002e 0BA9     		add	r1, sp, #44
 356 0030 0120     		movs	r0, #1
 357 0032 FFF7FEFF 		bl	eeprom_read_page_256
 358              	.LVL38:
 128:main.c        ****     
 129:main.c        ****     for(i=0; i<10; i++)
 359              		.loc 1 129 0
 360 0036 0024     		movs	r4, #0
 361 0038 12E0     		b	.L18
 362              	.LVL39:
 363              	.L21:
 130:main.c        ****     {
 131:main.c        ****         if(i==0)
 364              		.loc 1 131 0
 365 003a 002C     		cmp	r4, #0
 366 003c 06D1     		bne	.L19
 132:main.c        ****             sprintf(string_convert, "\nStart\n%u\n", string_read[i]);
 367              		.loc 1 132 0
 368 003e 0BAB     		add	r3, sp, #44
 369 0040 1A5D     		ldrb	r2, [r3, r4]
 370 0042 0A49     		ldr	r1, .L22+4
 371 0044 0EA8     		add	r0, sp, #56
 372 0046 FFF7FEFF 		bl	sprintf
 373              	.LVL40:
ARM GAS  C:\Users\NGUYEN~1\AppData\Local\Temp\ccCOztsO.s 			page 10


 374 004a 05E0     		b	.L20
 375              	.L19:
 133:main.c        ****         else
 134:main.c        ****             sprintf(string_convert, "%u\n", string_read[i]);
 376              		.loc 1 134 0
 377 004c 0BAB     		add	r3, sp, #44
 378 004e 1A5D     		ldrb	r2, [r3, r4]
 379 0050 0749     		ldr	r1, .L22+8
 380 0052 0EA8     		add	r0, sp, #56
 381 0054 FFF7FEFF 		bl	sprintf
 382              	.LVL41:
 383              	.L20:
 135:main.c        ****             
 136:main.c        ****         uart_UartPutString(string_convert);   
 384              		.loc 1 136 0 discriminator 2
 385 0058 0EA8     		add	r0, sp, #56
 386 005a FFF7FEFF 		bl	uart_UartPutString
 387              	.LVL42:
 129:main.c        ****     {
 388              		.loc 1 129 0 discriminator 2
 389 005e 0134     		adds	r4, r4, #1
 390              	.LVL43:
 391              	.L18:
 129:main.c        ****     {
 392              		.loc 1 129 0 is_stmt 0 discriminator 1
 393 0060 092C     		cmp	r4, #9
 394 0062 EADD     		ble	.L21
 137:main.c        ****     }
 138:main.c        **** }
 395              		.loc 1 138 0 is_stmt 1
 396 0064 17B0     		add	sp, sp, #92
 397              		@ sp needed
 398              	.LVL44:
 399 0066 30BD     		pop	{r4, r5, pc}
 400              	.L23:
 401              		.align	2
 402              	.L22:
 403 0068 00000000 		.word	.LANCHOR0
 404 006c 04000000 		.word	.LC5
 405 0070 00000000 		.word	.LC2
 406              		.cfi_endproc
 407              	.LFE38:
 408              		.size	write_and_read_page_24c256, .-write_and_read_page_24c256
 409              		.section	.rodata
 410              		.align	2
 411              		.set	.LANCHOR0,. + 0
 412              	.LC0:
 413 0000 11000000 		.word	17
 414 0004 01000000 		.word	1
 415 0008 02000000 		.word	2
 416 000c 02000000 		.word	2
 417 0010 03000000 		.word	3
 418 0014 03000000 		.word	3
 419 0018 03000000 		.word	3
 420 001c 03000000 		.word	3
 421 0020 03000000 		.word	3
 422 0024 FF000000 		.word	255
ARM GAS  C:\Users\NGUYEN~1\AppData\Local\Temp\ccCOztsO.s 			page 11


 423              	.LC1:
 424 0028 01000000 		.word	1
 425 002c 01000000 		.word	1
 426 0030 02000000 		.word	2
 427 0034 02000000 		.word	2
 428 0038 05000000 		.word	5
 429 003c 06000000 		.word	6
 430 0040 07000000 		.word	7
 431 0044 08000000 		.word	8
 432 0048 09000000 		.word	9
 433 004c FF000000 		.word	255
 434              		.section	.rodata.str1.4,"aMS",%progbits,1
 435              		.align	2
 436              	.LC2:
 437 0000 25750A00 		.ascii	"%u\012\000"
 438              	.LC5:
 439 0004 0A537461 		.ascii	"\012Start\012%u\012\000"
 439      72740A25 
 439      750A00
 440              		.text
 441              	.Letext0:
 442              		.file 2 "Generated_Source\\PSoC4/cytypes.h"
 443              		.file 3 "Generated_Source\\PSoC4/i2c.h"
 444              		.file 4 "Generated_Source\\PSoC4/timer.h"
 445              		.file 5 "timer_system.h"
 446              		.file 6 "Generated_Source\\PSoC4/uart.h"
 447              		.file 7 "ledYellow.h"
 448              		.file 8 "eeprom_external.h"
 449              		.file 9 "Generated_Source\\PSoC4/CyLib.h"
 450              		.file 10 "c:\\program files (x86)\\cypress\\psoc creator\\4.4\\psoc creator\\import\\gnu\\arm\\5.4
 451              		.file 11 "Generated_Source\\PSoC4/uart_SPI_UART.h"
 452              		.file 12 "Generated_Source\\PSoC4/LedYellow_0.h"