ARM GAS  C:\Users\NGUYEN~1\AppData\Local\Temp\ccUOz7xZ.s 			page 1


   1              		.syntax unified
   2              		.cpu cortex-m0
   3              		.fpu softvfp
   4              		.eabi_attribute 20, 1
   5              		.eabi_attribute 21, 1
   6              		.eabi_attribute 23, 3
   7              		.eabi_attribute 24, 1
   8              		.eabi_attribute 25, 1
   9              		.eabi_attribute 26, 1
  10              		.eabi_attribute 30, 1
  11              		.eabi_attribute 34, 0
  12              		.eabi_attribute 18, 4
  13              		.thumb
  14              		.syntax unified
  15              		.file	"main.c"
  16              		.text
  17              	.Ltext0:
  18              		.cfi_sections	.debug_frame
  19              		.section	.text.system_init,"ax",%progbits
  20              		.align	2
  21              		.global	system_init
  22              		.code	16
  23              		.thumb_func
  24              		.type	system_init, %function
  25              	system_init:
  26              	.LFB34:
  27              		.file 1 "main.c"
   1:main.c        **** /* ========================================
   2:main.c        ****  *
   3:main.c        ****  * Copyright YOUR COMPANY, THE YEAR
   4:main.c        ****  * All Rights Reserved
   5:main.c        ****  * UNPUBLISHED, LICENSED SOFTWARE.
   6:main.c        ****  *
   7:main.c        ****  * CONFIDENTIAL AND PROPRIETARY INFORMATION
   8:main.c        ****  * WHICH IS THE PROPERTY OF your company.
   9:main.c        ****  *
  10:main.c        ****  * ========================================
  11:main.c        **** */
  12:main.c        **** #include "main.h"
  13:main.c        **** 
  14:main.c        **** #include <stdio.h>
  15:main.c        **** #include "project.h"
  16:main.c        **** #include "timer_system.h"
  17:main.c        **** #include "eeprom_external.h"
  18:main.c        **** #include "ledYellow.h"
  19:main.c        **** 
  20:main.c        **** extern volatile int counter_shift_led;
  21:main.c        **** 
  22:main.c        **** int main(void)
  23:main.c        **** {
  24:main.c        ****     CyGlobalIntEnable; /* Enable global interrupts. */
  25:main.c        ****     
  26:main.c        ****     system_init();
  27:main.c        ****     int data_read_eeprom = 0x01;
  28:main.c        ****     //int i=0;
  29:main.c        ****     char stringss[10];
  30:main.c        ****     
ARM GAS  C:\Users\NGUYEN~1\AppData\Local\Temp\ccUOz7xZ.s 			page 2


  31:main.c        ****     // output status before turn off power
  32:main.c        ****     //data_read_eeprom = eeprom_read_a_byte(0x01);
  33:main.c        ****     
  34:main.c        ****     for(;;)
  35:main.c        ****     {        
  36:main.c        ****         //eeprom_write_a_byte(0x01, counter_shift_led);
  37:main.c        ****         //shift_left( counter_shift_led );
  38:main.c        ****         //flicker_8_led(1);
  39:main.c        ****         
  40:main.c        ****        
  41:main.c        ****         eeprom_write_a_byte_128(0x00000000, 0x03);
  42:main.c        ****         CyDelay(1000);
  43:main.c        ****         data_read_eeprom = eeprom_read_a_byte(0x00);
  44:main.c        ****         
  45:main.c        ****         
  46:main.c        ****         sprintf(stringss, "%u\n", data_read_eeprom);
  47:main.c        ****         uart_UartPutString(stringss);
  48:main.c        ****         
  49:main.c        ****         
  50:main.c        ****         LedYellow_0_Write(~LedYellow_0_Read());
  51:main.c        ****         CyDelay(1000);
  52:main.c        ****     }
  53:main.c        **** }
  54:main.c        **** 
  55:main.c        **** void system_init()
  56:main.c        **** {
  28              		.loc 1 56 0
  29              		.cfi_startproc
  30              		@ args = 0, pretend = 0, frame = 0
  31              		@ frame_needed = 0, uses_anonymous_args = 0
  32 0000 10B5     		push	{r4, lr}
  33              		.cfi_def_cfa_offset 8
  34              		.cfi_offset 4, -8
  35              		.cfi_offset 14, -4
  57:main.c        ****     i2c_Start();
  36              		.loc 1 57 0
  37 0002 FFF7FEFF 		bl	i2c_Start
  38              	.LVL0:
  58:main.c        ****     
  59:main.c        ****     timer_Start();
  39              		.loc 1 59 0
  40 0006 FFF7FEFF 		bl	timer_Start
  41              	.LVL1:
  60:main.c        ****     
  61:main.c        ****     init_time_interrupt();
  42              		.loc 1 61 0
  43 000a FFF7FEFF 		bl	init_time_interrupt
  44              	.LVL2:
  62:main.c        ****     
  63:main.c        ****     uart_Start();
  45              		.loc 1 63 0
  46 000e FFF7FEFF 		bl	uart_Start
  47              	.LVL3:
  64:main.c        ****     
  65:main.c        ****     turn_off_all_led();
  48              		.loc 1 65 0
  49 0012 FFF7FEFF 		bl	turn_off_all_led
ARM GAS  C:\Users\NGUYEN~1\AppData\Local\Temp\ccUOz7xZ.s 			page 3


  50              	.LVL4:
  66:main.c        **** }
  51              		.loc 1 66 0
  52              		@ sp needed
  53 0016 10BD     		pop	{r4, pc}
  54              		.cfi_endproc
  55              	.LFE34:
  56              		.size	system_init, .-system_init
  57              		.section	.text.main,"ax",%progbits
  58              		.align	2
  59              		.global	main
  60              		.code	16
  61              		.thumb_func
  62              		.type	main, %function
  63              	main:
  64              	.LFB33:
  23:main.c        ****     CyGlobalIntEnable; /* Enable global interrupts. */
  65              		.loc 1 23 0
  66              		.cfi_startproc
  67              		@ args = 0, pretend = 0, frame = 16
  68              		@ frame_needed = 0, uses_anonymous_args = 0
  69 0000 10B5     		push	{r4, lr}
  70              		.cfi_def_cfa_offset 8
  71              		.cfi_offset 4, -8
  72              		.cfi_offset 14, -4
  73 0002 84B0     		sub	sp, sp, #16
  74              		.cfi_def_cfa_offset 24
  24:main.c        ****     
  75              		.loc 1 24 0
  76              		.syntax divided
  77              	@ 24 "main.c" 1
  78 0004 62B6     		CPSIE   i
  79              	@ 0 "" 2
  26:main.c        ****     int data_read_eeprom = 0x01;
  80              		.loc 1 26 0
  81              		.thumb
  82              		.syntax unified
  83 0006 FFF7FEFF 		bl	system_init
  84              	.LVL5:
  85              	.L3:
  41:main.c        ****         CyDelay(1000);
  86              		.loc 1 41 0 discriminator 1
  87 000a 0321     		movs	r1, #3
  88 000c 0020     		movs	r0, #0
  89 000e FFF7FEFF 		bl	eeprom_write_a_byte_128
  90              	.LVL6:
  42:main.c        ****         data_read_eeprom = eeprom_read_a_byte(0x00);
  91              		.loc 1 42 0 discriminator 1
  92 0012 FA24     		movs	r4, #250
  93 0014 A400     		lsls	r4, r4, #2
  94 0016 2000     		movs	r0, r4
  95 0018 FFF7FEFF 		bl	CyDelay
  96              	.LVL7:
  43:main.c        ****         
  97              		.loc 1 43 0 discriminator 1
  98 001c 0020     		movs	r0, #0
  99 001e FFF7FEFF 		bl	eeprom_read_a_byte
ARM GAS  C:\Users\NGUYEN~1\AppData\Local\Temp\ccUOz7xZ.s 			page 4


 100              	.LVL8:
 101 0022 0200     		movs	r2, r0
 102              	.LVL9:
  46:main.c        ****         uart_UartPutString(stringss);
 103              		.loc 1 46 0 discriminator 1
 104 0024 0849     		ldr	r1, .L4
 105 0026 01A8     		add	r0, sp, #4
 106              	.LVL10:
 107 0028 FFF7FEFF 		bl	sprintf
 108              	.LVL11:
  47:main.c        ****         
 109              		.loc 1 47 0 discriminator 1
 110 002c 01A8     		add	r0, sp, #4
 111 002e FFF7FEFF 		bl	uart_UartPutString
 112              	.LVL12:
  50:main.c        ****         CyDelay(1000);
 113              		.loc 1 50 0 discriminator 1
 114 0032 FFF7FEFF 		bl	LedYellow_0_Read
 115              	.LVL13:
 116 0036 C043     		mvns	r0, r0
 117 0038 C0B2     		uxtb	r0, r0
 118 003a FFF7FEFF 		bl	LedYellow_0_Write
 119              	.LVL14:
  51:main.c        ****     }
 120              		.loc 1 51 0 discriminator 1
 121 003e 2000     		movs	r0, r4
 122 0040 FFF7FEFF 		bl	CyDelay
 123              	.LVL15:
 124 0044 E1E7     		b	.L3
 125              	.L5:
 126 0046 C046     		.align	2
 127              	.L4:
 128 0048 00000000 		.word	.LC0
 129              		.cfi_endproc
 130              	.LFE33:
 131              		.size	main, .-main
 132              		.section	.rodata.str1.4,"aMS",%progbits,1
 133              		.align	2
 134              	.LC0:
 135 0000 25750A00 		.ascii	"%u\012\000"
 136              		.text
 137              	.Letext0:
 138              		.file 2 "Generated_Source\\PSoC4/i2c.h"
 139              		.file 3 "Generated_Source\\PSoC4/timer.h"
 140              		.file 4 "timer_system.h"
 141              		.file 5 "Generated_Source\\PSoC4/uart.h"
 142              		.file 6 "ledYellow.h"
 143              		.file 7 "eeprom_external.h"
 144              		.file 8 "Generated_Source\\PSoC4/CyLib.h"
 145              		.file 9 "c:\\program files (x86)\\cypress\\psoc creator\\4.4\\psoc creator\\import\\gnu\\arm\\5.4.
 146              		.file 10 "Generated_Source\\PSoC4/uart_SPI_UART.h"
 147              		.file 11 "Generated_Source\\PSoC4/LedYellow_0.h"